(dp0
S'HighPtID_PtEtaBins_Pt53'
p1
(dp2
S'abseta_pTtuneP_ratio'
p3
(dp4
S'abseta:[0.0,1.2]'
p5
(dp6
S'pTtuneP:[53.0,80.0]'
p7
(dp8
S'value'
p9
F0.985720157623291
sS'error'
p10
F0.0011702850378030399
ssS'pTtuneP:[140.0,300.0]'
p11
(dp12
g9
F0.9570706486701965
sg10
F0.030904939967075003
ssS'pTtuneP:[80.0,140.0]'
p13
(dp14
g9
F0.990919828414917
sg10
F0.0046191721183898495
sssS'abseta:[2.1,2.4]'
p15
(dp16
S'pTtuneP:[53.0,80.0]'
p17
(dp18
g9
F0.9843316674232483
sg10
F0.012858252000958206
ssS'pTtuneP:[140.0,300.0]'
p19
(dp20
g9
F1.0
sg10
F0.12317165194230728
ssS'pTtuneP:[80.0,140.0]'
p21
(dp22
g9
F0.9332278370857239
sg10
F0.03095907716834765
sssS'abseta:[1.2,2.1]'
p23
(dp24
S'pTtuneP:[53.0,80.0]'
p25
(dp26
g9
F0.9935390949249268
sg10
F0.001476134785764261
ssS'pTtuneP:[140.0,300.0]'
p27
(dp28
g9
F0.9942596554756165
sg10
F0.1361386772541098
ssS'pTtuneP:[80.0,140.0]'
p29
(dp30
g9
F1.001926302909851
sg10
F0.006800498055733851
ssssS'pTtuneP_abseta_ratio'
p31
(dp32
S'pTtuneP:[53.0,80.0]'
p33
(dp34
S'abseta:[0.0,1.2]'
p35
(dp36
g9
F0.985720157623291
sg10
F0.0011702850378030399
ssS'abseta:[2.1,2.4]'
p37
(dp38
g9
F0.9843316674232483
sg10
F0.012858252000958206
ssS'abseta:[1.2,2.1]'
p39
(dp40
g9
F0.9935390949249268
sg10
F0.001476134785764261
sssS'pTtuneP:[140.0,300.0]'
p41
(dp42
S'abseta:[0.0,1.2]'
p43
(dp44
g9
F0.9570706486701965
sg10
F0.030904939967075003
ssS'abseta:[2.1,2.4]'
p45
(dp46
g9
F1.0
sg10
F0.12317165194230728
ssS'abseta:[1.2,2.1]'
p47
(dp48
g9
F0.9942596554756165
sg10
F0.1361386772541098
sssS'pTtuneP:[80.0,140.0]'
p49
(dp50
S'abseta:[0.0,1.2]'
p51
(dp52
g9
F0.990919828414917
sg10
F0.0046191721183898495
ssS'abseta:[2.1,2.4]'
p53
(dp54
g9
F0.9332278370857239
sg10
F0.03095907716834765
ssS'abseta:[1.2,2.1]'
p55
(dp56
g9
F1.001926302909851
sg10
F0.006800498055733851
sssssS'HighPtID_EtaBins_Pt53'
p57
(dp58
S'pTtuneP_ratio'
p59
(dp60
S'pTtuneP:[-0.2,0.2]'
p61
(dp62
g9
F0.9862794876098633
sg10
F0.002796797083459757
ssS'pTtuneP:[1.6,2.1]'
p63
(dp64
g9
F0.9978116154670715
sg10
F0.0033023857764679066
ssS'pTtuneP:[0.3,0.9]'
p65
(dp66
g9
F0.9904689192771912
sg10
F0.0018769004821971153
ssS'pTtuneP:[-1.2,-0.9]'
p67
(dp68
g9
F0.992138147354126
sg10
F0.0030676012168189635
ssS'pTtuneP:[0.2,0.3]'
p69
(dp70
g9
F0.9719595909118652
sg10
F0.0072493263659063915
ssS'pTtuneP:[0.9,1.2]'
p71
(dp72
g9
F0.9760598540306091
sg10
F0.003272307136460495
ssS'pTtuneP:[-0.3,-0.2]'
p73
(dp74
g9
F0.9757281541824341
sg10
F0.009844753383392977
ssS'pTtuneP:[-2.4,-2.1]'
p75
(dp76
g9
F0.9787070751190186
sg10
F0.00926986194175527
ssS'pTtuneP:[-1.6,-1.2]'
p77
(dp78
g9
F0.9970033168792725
sg10
F0.0028488662450970254
ssS'pTtuneP:[-0.9,-0.3]'
p79
(dp80
g9
F0.9904990792274475
sg10
F0.0020025502784566792
ssS'pTtuneP:[2.1,2.4]'
p81
(dp82
g9
F0.9929133653640747
sg10
F0.008539082768334656
ssS'pTtuneP:[-2.1,-1.6]'
p83
(dp84
g9
F0.9924548864364624
sg10
F0.0038808136206661095
ssS'pTtuneP:[1.2,1.6]'
p85
(dp86
g9
F0.9911313056945801
sg10
F0.0028221696262647517
ssssS'HighPtID_PtEtaBins_Pt20'
p87
(dp88
S'abseta_pTtuneP_ratio'
p89
(dp90
S'abseta:[0.0,1.2]'
p91
(dp92
S'pair:[20.0,30.0]'
p93
(dp94
g9
F0.9828298091888428
sg10
F0.0012591348131140076
ssS'pair:[50.0,60.0]'
p95
(dp96
g9
F0.9871553182601929
sg10
F0.001060001577330248
ssS'pair:[60.0,120.0]'
p97
(dp98
g9
F0.9868984222412109
sg10
F0.0017372209180981826
ssS'pair:[40.0,50.0]'
p99
(dp100
g9
F0.988313615322113
sg10
F0.00041053162147953185
ssS'pair:[30.0,40.0]'
p101
(dp102
g9
F0.9863195419311523
sg10
F0.0005331087766013197
sssS'abseta:[2.1,2.4]'
p103
(dp104
S'pair:[20.0,30.0]'
p105
(dp106
g9
F0.9873929619789124
sg10
F0.0026369820375694336
ssS'pair:[50.0,60.0]'
p107
(dp108
g9
F0.9817145466804504
sg10
F0.004078255546380354
ssS'pair:[60.0,120.0]'
p109
(dp110
g9
F0.9803805947303772
sg10
F0.010323711082750745
ssS'pair:[40.0,50.0]'
p111
(dp112
g9
F0.9812938570976257
sg10
F0.001512512778724488
ssS'pair:[30.0,40.0]'
p113
(dp114
g9
F0.9819722771644592
sg10
F0.0013808669340853532
sssS'abseta:[1.2,2.1]'
p115
(dp116
S'pair:[20.0,30.0]'
p117
(dp118
g9
F0.9942758679389954
sg10
F0.0012208812472419839
ssS'pair:[50.0,60.0]'
p119
(dp120
g9
F0.9936226010322571
sg10
F0.0011538601577981413
ssS'pair:[60.0,120.0]'
p121
(dp122
g9
F0.9960414171218872
sg10
F0.0024740972448253087
ssS'pair:[40.0,50.0]'
p123
(dp124
g9
F0.9958587884902954
sg10
F0.0003915291869278888
ssS'pair:[30.0,40.0]'
p125
(dp126
g9
F0.9938441514968872
sg10
F0.0005084723495317772
ssssS'pTtuneP_abseta_ratio'
p127
(dp128
S'pair:[20.0,30.0]'
p129
(dp130
S'ne:[0.0,1.2]'
p131
(dp132
g9
F0.9828298091888428
sg10
F0.0012591348131140076
ssS'ne:[1.2,2.1]'
p133
(dp134
g9
F0.9942758679389954
sg10
F0.0012208812472419839
ssS'ne:[2.1,2.4]'
p135
(dp136
g9
F0.9873929619789124
sg10
F0.0026369820375694336
sssS'pair:[50.0,60.0]'
p137
(dp138
S'ne:[0.0,1.2]'
p139
(dp140
g9
F0.9871553182601929
sg10
F0.001060001577330248
ssS'ne:[1.2,2.1]'
p141
(dp142
g9
F0.9936226010322571
sg10
F0.0011538601577981413
ssS'ne:[2.1,2.4]'
p143
(dp144
g9
F0.9817145466804504
sg10
F0.004078255546380354
sssS'pair:[60.0,120.0]'
p145
(dp146
S'ne:[0.0,1.2]'
p147
(dp148
g9
F0.9868984222412109
sg10
F0.0017372209180981826
ssS'ne:[1.2,2.1]'
p149
(dp150
g9
F0.9960414171218872
sg10
F0.0024740972448253087
ssS'ne:[2.1,2.4]'
p151
(dp152
g9
F0.9803805947303772
sg10
F0.010323711082750745
sssS'pair:[40.0,50.0]'
p153
(dp154
S'ne:[0.0,1.2]'
p155
(dp156
g9
F0.988313615322113
sg10
F0.00041053162147953185
ssS'ne:[1.2,2.1]'
p157
(dp158
g9
F0.9958587884902954
sg10
F0.0003915291869278888
ssS'ne:[2.1,2.4]'
p159
(dp160
g9
F0.9812938570976257
sg10
F0.001512512778724488
sssS'pair:[30.0,40.0]'
p161
(dp162
S'ne:[0.0,1.2]'
p163
(dp164
g9
F0.9863195419311523
sg10
F0.0005331087766013197
ssS'ne:[1.2,2.1]'
p165
(dp166
g9
F0.9938441514968872
sg10
F0.0005084723495317772
ssS'ne:[2.1,2.4]'
p167
(dp168
g9
F0.9819722771644592
sg10
F0.0013808669340853532
sssssS'HighPtID_PtBins_Pt53'
p169
(dp170
S'pTtuneP_ratio'
p171
(dp172
S'pair:[53.0,80.0]'
p173
(dp174
g9
F0.9879701733589172
sg10
F0.0009111392741681716
ssS'pair:[80.0,140.0]'
p175
(dp176
g9
F0.9912301898002625
sg10
F0.003985046844124859
ssS'pair:[140.0,300.0]'
p177
(dp178
g9
F0.9859440922737122
sg10
F0.035615313062461455
ssssS'tkRelIsoID_PtEtaBins_Pt20'
p179
(dp180
S'abseta_pTtuneP_ratio'
p181
(dp182
S'abseta:[0.0,1.2]'
p183
(dp184
S'pair:[20.0,30.0]'
p185
(dp186
g9
F0.9999141693115234
sg10
F0.001002164377603333
ssS'pair:[50.0,60.0]'
p187
(dp188
g9
F0.9998735785484314
sg10
F0.0003536102352544782
ssS'pair:[60.0,120.0]'
p189
(dp190
g9
F0.9995099306106567
sg10
F0.0004760821367257903
ssS'pair:[40.0,50.0]'
p191
(dp192
g9
F0.9993510842323303
sg10
F0.0002105776107004217
ssS'pair:[30.0,40.0]'
p193
(dp194
g9
F0.9995902180671692
sg10
F0.0003754594645698791
sssS'abseta:[2.1,2.4]'
p195
(dp196
S'pair:[20.0,30.0]'
p197
(dp198
g9
F1.0003994703292847
sg10
F0.0016810848263822708
ssS'pair:[50.0,60.0]'
p199
(dp200
g9
F1.001578450202942
sg10
F0.0009671808720546814
ssS'pair:[60.0,120.0]'
p201
(dp202
g9
F1.0011582374572754
sg10
F0.0013532632660209262
ssS'pair:[40.0,50.0]'
p203
(dp204
g9
F1.0003995895385742
sg10
F0.0005119721653193054
ssS'pair:[30.0,40.0]'
p205
(dp206
g9
F0.9995952844619751
sg10
F0.0008396539259366717
sssS'abseta:[1.2,2.1]'
p207
(dp208
S'pair:[20.0,30.0]'
p209
(dp210
g9
F1.0001370906829834
sg10
F0.0010976093837449913
ssS'pair:[50.0,60.0]'
p211
(dp212
g9
F0.9997379779815674
sg10
F0.00045449474332730563
ssS'pair:[60.0,120.0]'
p213
(dp214
g9
F1.0010874271392822
sg10
F0.000644472927559438
ssS'pair:[40.0,50.0]'
p215
(dp216
g9
F0.9998430609703064
sg10
F0.0002708684187754394
ssS'pair:[30.0,40.0]'
p217
(dp218
g9
F1.0008221864700317
sg10
F0.0004954465556998962
ssssS'pTtuneP_abseta_ratio'
p219
(dp220
S'pair:[20.0,30.0]'
p221
(dp222
S'ne:[0.0,1.2]'
p223
(dp224
g9
F0.9999141693115234
sg10
F0.001002164377603333
ssS'ne:[1.2,2.1]'
p225
(dp226
g9
F1.0001370906829834
sg10
F0.0010976093837449913
ssS'ne:[2.1,2.4]'
p227
(dp228
g9
F1.0003994703292847
sg10
F0.0016810848263822708
sssS'pair:[50.0,60.0]'
p229
(dp230
S'ne:[0.0,1.2]'
p231
(dp232
g9
F0.9998735785484314
sg10
F0.0003536102352544782
ssS'ne:[1.2,2.1]'
p233
(dp234
g9
F0.9997379779815674
sg10
F0.00045449474332730563
ssS'ne:[2.1,2.4]'
p235
(dp236
g9
F1.001578450202942
sg10
F0.0009671808720546814
sssS'pair:[60.0,120.0]'
p237
(dp238
S'ne:[0.0,1.2]'
p239
(dp240
g9
F0.9995099306106567
sg10
F0.0004760821367257903
ssS'ne:[1.2,2.1]'
p241
(dp242
g9
F1.0010874271392822
sg10
F0.000644472927559438
ssS'ne:[2.1,2.4]'
p243
(dp244
g9
F1.0011582374572754
sg10
F0.0013532632660209262
sssS'pair:[40.0,50.0]'
p245
(dp246
S'ne:[0.0,1.2]'
p247
(dp248
g9
F0.9993510842323303
sg10
F0.0002105776107004217
ssS'ne:[1.2,2.1]'
p249
(dp250
g9
F0.9998430609703064
sg10
F0.0002708684187754394
ssS'ne:[2.1,2.4]'
p251
(dp252
g9
F1.0003995895385742
sg10
F0.0005119721653193054
sssS'pair:[30.0,40.0]'
p253
(dp254
S'ne:[0.0,1.2]'
p255
(dp256
g9
F0.9995902180671692
sg10
F0.0003754594645698791
ssS'ne:[1.2,2.1]'
p257
(dp258
g9
F1.0008221864700317
sg10
F0.0004954465556998962
ssS'ne:[2.1,2.4]'
p259
(dp260
g9
F0.9995952844619751
sg10
F0.0008396539259366717
sssssS'tkRelIsoID_EtaBins_Pt20'
p261
(dp262
S'eta_ratio'
p263
(dp264
S'eta:[-0.2,0.2]'
p265
(dp266
g9
F1.00003182888031
sg10
F0.000470276387388337
ssS'eta:[-2.4,-2.1]'
p267
(dp268
g9
F0.9989619851112366
sg10
F0.0006806957772926448
ssS'eta:[0.3,0.9]'
p269
(dp270
g9
F0.9993266463279724
sg10
F0.00038939503424829323
ssS'eta:[-0.9,-0.3]'
p271
(dp272
g9
F0.9999244809150696
sg10
F0.00038955124382590616
ssS'eta:[0.2,0.3]'
p273
(dp274
g9
F1.0005863904953003
sg10
F0.0010060835227637779
ssS'eta:[0.9,1.2]'
p275
(dp276
g9
F0.9994849562644958
sg10
F0.0005840810599365198
ssS'eta:[-1.2,-0.9]'
p277
(dp278
g9
F1.0002471208572388
sg10
F0.0005814606592099528
ssS'eta:[2.1,2.4]'
p279
(dp280
g9
F1.000783085823059
sg10
F0.0006614158952512629
ssS'eta:[-1.6,-1.2]'
p281
(dp282
g9
F0.9997535943984985
sg10
F0.0005296627189684787
ssS'eta:[1.2,1.6]'
p283
(dp284
g9
F1.0010522603988647
sg10
F0.0005203720739425004
ssS'eta:[-2.1,-1.6]'
p285
(dp286
g9
F0.9994080066680908
sg10
F0.0005017816620319685
ssS'eta:[-0.3,-0.2]'
p287
(dp288
g9
F1.0032202005386353
sg10
F0.0009818199732501518
ssS'eta:[1.6,2.1]'
p289
(dp290
g9
F0.9998424053192139
sg10
F0.0004942007649731945
ssssS'tkRelIsoID_PtBins_Pt20'
p291
(dp292
S'pTtuneP_ratio'
p293
(dp294
S'pTtuneP:[80.0,120.0]'
p295
(dp296
g9
F0.9997546672821045
sg10
F0.0007693685863634346
ssS'pTtuneP:[120.0,200.0]'
p297
(dp298
g9
F0.9983395934104919
sg10
F0.002349809692052139
ssS'pTtuneP:[20.0,30.0]'
p299
(dp300
g9
F1.0002422332763672
sg10
F0.0006895789089222017
ssS'pTtuneP:[50.0,60.0]'
p301
(dp302
g9
F0.999828040599823
sg10
F0.00028097922747028577
ssS'pTtuneP:[30.0,40.0]'
p303
(dp304
g9
F1.0000076293945312
sg10
F0.0002845581289597362
ssS'pTtuneP:[60.0,80.0]'
p305
(dp306
g9
F1.0002309083938599
sg10
F0.00039956665699701974
ssS'pTtuneP:[40.0,50.0]'
p307
(dp308
g9
F0.9997037649154663
sg10
F0.00015426809088426644
ssssS'tkRelIsoID_EtaBins_Pt53'
p309
(dp310
S'eta_ratio'
p311
(dp312
S'eta:[-0.2,0.2]'
p313
(dp314
g9
F0.9985860586166382
sg10
F0.0008420051453631262
ssS'eta:[-2.4,-2.1]'
p315
(dp316
g9
F1.0008974075317383
sg10
F0.0012600272391738538
ssS'eta:[0.3,0.9]'
p317
(dp318
g9
F0.9993748068809509
sg10
F0.0007221996881563508
ssS'eta:[-0.9,-0.3]'
p319
(dp320
g9
F0.9994896054267883
sg10
F0.0006376024021172189
ssS'eta:[0.2,0.3]'
p321
(dp322
g9
F0.9998074769973755
sg10
F0.0018813924735855447
ssS'eta:[0.9,1.2]'
p323
(dp324
g9
F0.9994737505912781
sg10
F0.0008788777204859212
ssS'eta:[-1.2,-0.9]'
p325
(dp326
g9
F1.0015511512756348
sg10
F0.0009736976840380126
ssS'eta:[2.1,2.4]'
p327
(dp328
g9
F1.002246379852295
sg10
F0.0012154631367379792
ssS'eta:[-1.6,-1.2]'
p329
(dp330
g9
F0.9990856647491455
sg10
F0.0008377245527447591
ssS'eta:[1.2,1.6]'
p331
(dp332
g9
F1.0013377666473389
sg10
F0.0008406517337168701
ssS'eta:[-2.1,-1.6]'
p333
(dp334
g9
F0.9993606805801392
sg10
F0.0008786099984311397
ssS'eta:[-0.3,-0.2]'
p335
(dp336
g9
F0.997573971748352
sg10
F0.0019362166438176137
ssS'eta:[1.6,2.1]'
p337
(dp338
g9
F1.000553846359253
sg10
F0.0008769691207018919
ssssS'HighPtID_EtaBins_Pt20'
p339
(dp340
S'eta_ratio'
p341
(dp342
S'eta:[-0.2,0.2]'
p343
(dp344
g9
F0.9912551045417786
sg10
F0.0006719812132853057
ssS'eta:[-2.4,-2.1]'
p345
(dp346
g9
F0.9775153994560242
sg10
F0.0013563166849424402
ssS'eta:[0.3,0.9]'
p347
(dp348
g9
F0.9884458184242249
sg10
F0.0005292497961078312
ssS'eta:[-0.9,-0.3]'
p349
(dp350
g9
F0.9928338527679443
sg10
F0.0005103971201283236
ssS'eta:[0.2,0.3]'
p351
(dp352
g9
F0.9700807332992554
sg10
F0.002603531096103059
ssS'eta:[0.9,1.2]'
p353
(dp354
g9
F0.9776059985160828
sg10
F0.0008530777917505732
ssS'eta:[-1.2,-0.9]'
p355
(dp356
g9
F0.9890992641448975
sg10
F0.0007691871973894488
ssS'eta:[2.1,2.4]'
p357
(dp358
g9
F0.9850198030471802
sg10
F0.001277989041823031
ssS'eta:[-1.6,-1.2]'
p359
(dp360
g9
F0.9970695376396179
sg10
F0.0005821008771527577
ssS'eta:[1.2,1.6]'
p361
(dp362
g9
F0.995843768119812
sg10
F0.0005914653525408588
ssS'eta:[-2.1,-1.6]'
p363
(dp364
g9
F0.9892091751098633
sg10
F0.0006851424553291438
ssS'eta:[-0.3,-0.2]'
p365
(dp366
g9
F0.9700390100479126
sg10
F0.0025654895202277244
ssS'eta:[1.6,2.1]'
p367
(dp368
g9
F0.993547797203064
sg10
F0.0006286815425641941
ssssS'HighPtID_PtBins_Pt20'
p369
(dp370
S'pTtuneP_ratio'
p371
(dp372
S'pair:[120.0,200.0]'
p373
(dp374
g9
F1.000199794769287
sg10
F0.01939130442966604
ssS'pair:[40.0,50.0]'
p375
(dp376
g9
F0.9889572858810425
sg10
F0.00028736385942481333
ssS'pair:[80.0,120.0]'
p377
(dp378
g9
F0.9896674752235413
sg10
F0.003965871816528534
ssS'pair:[30.0,40.0]'
p379
(dp380
g9
F0.9883593320846558
sg10
F0.0003715669506191466
ssS'pair:[60.0,80.0]'
p381
(dp382
g9
F0.9877299070358276
sg10
F0.001469046473001615
ssS'pair:[50.0,60.0]'
p383
(dp384
g9
F0.988324761390686
sg10
F0.0007989353589276443
ssS'pair:[20.0,30.0]'
p385
(dp386
g9
F0.9898786544799805
sg10
F0.0008463729130564394
ssssS'tkRelIsoID_PtBins_Pt53'
p387
(dp388
S'pTtuneP_ratio'
p389
(dp390
S'pair:[53.0,80.0]'
p391
(dp392
g9
F1.0000494718551636
sg10
F0.00026615693863605037
ssS'pair:[80.0,140.0]'
p393
(dp394
g9
F0.9996997714042664
sg10
F0.000741968649812261
ssS'pair:[140.0,300.0]'
p395
(dp396
g9
F0.9975112676620483
sg10
F0.003336202481405908
ssssS'tkRelIsoID_PtEtaBins_Pt53'
p397
(dp398
S'abseta_pTtuneP_ratio'
p399
(dp400
S'abseta:[0.0,1.2]'
p401
(dp402
S'pair:[53.0,80.0]'
p403
(dp404
g9
F0.9997498989105225
sg10
F0.00035576188112879564
ssS'pair:[80.0,140.0]'
p405
(dp406
g9
F0.9987856149673462
sg10
F0.0009122067175874928
ssS'pair:[140.0,300.0]'
p407
(dp408
g9
F0.9964004158973694
sg10
F0.004038185206664847
sssS'abseta:[2.1,2.4]'
p409
(dp410
S'pair:[53.0,80.0]'
p411
(dp412
g9
F1.0014866590499878
sg10
F0.0009209753514292352
ssS'pair:[80.0,140.0]'
p413
(dp414
g9
F1.0023366212844849
sg10
F0.0034084935953049606
ssS'pair:[140.0,300.0]'
p415
(dp416
g9
F1.0076096057891846
sg10
F0.03118186972350695
sssS'abseta:[1.2,2.1]'
p417
(dp418
S'pair:[53.0,80.0]'
p419
(dp420
g9
F1.0002378225326538
sg10
F0.0004484108575838291
ssS'pair:[80.0,140.0]'
p421
(dp422
g9
F1.0010393857955933
sg10
F0.0014018111812361333
ssS'pair:[140.0,300.0]'
p423
(dp424
g9
F0.998447835445404
sg10
F0.006589904997437438
ssssS'pTtuneP_abseta_ratio'
p425
(dp426
S'pair:[53.0,80.0]'
p427
(dp428
S'ne:[0.0,1.2]'
p429
(dp430
g9
F0.9997498989105225
sg10
F0.00035576188112879564
ssS'ne:[1.2,2.1]'
p431
(dp432
g9
F1.0002378225326538
sg10
F0.0004484108575838291
ssS'ne:[2.1,2.4]'
p433
(dp434
g9
F1.0014866590499878
sg10
F0.0009209753514292352
sssS'pair:[80.0,140.0]'
p435
(dp436
S'ne:[0.0,1.2]'
p437
(dp438
g9
F0.9987856149673462
sg10
F0.0009122067175874928
ssS'ne:[1.2,2.1]'
p439
(dp440
g9
F1.0010393857955933
sg10
F0.0014018111812361333
ssS'ne:[2.1,2.4]'
p441
(dp442
g9
F1.0023366212844849
sg10
F0.0034084935953049606
sssS'pair:[140.0,300.0]'
p443
(dp444
S'ne:[0.0,1.2]'
p445
(dp446
g9
F0.9964004158973694
sg10
F0.004038185206664847
ssS'ne:[1.2,2.1]'
p447
(dp448
g9
F0.998447835445404
sg10
F0.006589904997437438
ssS'ne:[2.1,2.4]'
p449
(dp450
g9
F1.0076096057891846
sg10
F0.03118186972350695
sssss.