(dp0
S'MC_NUM_LooseRelIso_DEN_TightID_PAR_vtx'
p1
(dp2
S'tag_nVertices_ratio'
p3
(dp4
S'tag:[22.5,24.5]'
p5
(dp6
S'value'
p7
F0.9981292486190796
sS'error'
p8
F0.0006834953745080827
ssS'tag:[8.5,10.5]'
p9
(dp10
g7
F0.9996537566184998
sg8
F0.0002794056449490571
ssS'tag:[24.5,26.5]'
p11
(dp12
g7
F0.9979409575462341
sg8
F0.001020985417830648
ssS'tag:[26.5,28.5]'
p13
(dp14
g7
F0.9990811347961426
sg8
F0.0016931949124518902
ssS'tag:[16.5,18.5]'
p15
(dp16
g7
F0.9990459084510803
sg8
F0.00029055956806514014
ssS'tag:[6.5,8.5]'
p17
(dp18
g7
F0.9991291761398315
sg8
F0.0003931710186181995
ssS'tag:[18.5,20.5]'
p19
(dp20
g7
F0.9995652437210083
sg8
F0.00036199062487020145
ssS'tag:[10.5,12.5]'
p21
(dp22
g7
F0.9997000694274902
sg8
F0.0002448681633744813
ssS'tag:[14.5,16.5]'
p23
(dp24
g7
F0.9992492198944092
sg8
F0.00025009694584363903
ssS'tag:[2.5,4.5]'
p25
(dp26
g7
F1.000293254852295
sg8
F0.0013040840231253981
ssS'tag:[28.5,30.5]'
p27
(dp28
g7
F0.9963159561157227
sg8
F0.0025169756345678087
ssS'tag:[20.5,22.5]'
p29
(dp30
g7
F0.9988598823547363
sg8
F0.00047161779966873235
ssS'tag:[0.5,2.5]'
p31
(dp32
g7
F0.9977743029594421
sg8
F0.0043639376075644155
ssS'tag:[12.5,14.5]'
p33
(dp34
g7
F0.9994307160377502
sg8
F0.0002338878125300216
ssS'tag:[4.5,6.5]'
p35
(dp36
g7
F0.9998908042907715
sg8
F0.0005929320978959512
ssssS'MC_NUM_LooseRelTkIso_DEN_HighPtID_PAR_vtx'
p37
(dp38
S'tag_nVertices_ratio'
p39
(dp40
S'tag:[22.5,24.5]'
p41
(dp42
g7
F0.9986437559127808
sg8
F0.0007018062861844979
ssS'tag:[8.5,10.5]'
p43
(dp44
g7
F0.9995134472846985
sg8
F0.0002901539935713286
ssS'tag:[24.5,26.5]'
p45
(dp46
g7
F0.9989802241325378
sg8
F0.0010325415345074512
ssS'tag:[26.5,28.5]'
p47
(dp48
g7
F0.9987187385559082
sg8
F0.0015680020959012856
ssS'tag:[16.5,18.5]'
p49
(dp50
g7
F0.9985868334770203
sg8
F0.00029650621468892786
ssS'tag:[6.5,8.5]'
p51
(dp52
g7
F0.9995220303535461
sg8
F0.00039534321455140744
ssS'tag:[18.5,20.5]'
p53
(dp54
g7
F0.9998795986175537
sg8
F0.00038218749473892423
ssS'tag:[10.5,12.5]'
p55
(dp56
g7
F0.9996585845947266
sg8
F0.00025002946776426154
ssS'tag:[14.5,16.5]'
p57
(dp58
g7
F0.9990965723991394
sg8
F0.00025707040621011907
ssS'tag:[2.5,4.5]'
p59
(dp60
g7
F1.000528335571289
sg8
F0.001381674658028864
ssS'tag:[28.5,30.5]'
p61
(dp62
g7
F0.9981532692909241
sg8
F0.0026255523370867263
ssS'tag:[20.5,22.5]'
p63
(dp64
g7
F0.9992436170578003
sg8
F0.0004923761384688313
ssS'tag:[0.5,2.5]'
p65
(dp66
g7
F0.9974687099456787
sg8
F0.004372637744838115
ssS'tag:[12.5,14.5]'
p67
(dp68
g7
F0.999193012714386
sg8
F0.00024087364398285666
ssS'tag:[4.5,6.5]'
p69
(dp70
g7
F0.9996176958084106
sg8
F0.0006236271864273043
ssssS'MC_NUM_TightRelIso_DEN_TightID_PAR_vtx'
p71
(dp72
S'tag_nVertices_ratio'
p73
(dp74
S'tag:[22.5,24.5]'
p75
(dp76
g7
F0.9902008175849915
sg8
F0.0011090825655595004
ssS'tag:[8.5,10.5]'
p77
(dp78
g7
F0.9954953789710999
sg8
F0.00045613899286590297
ssS'tag:[24.5,26.5]'
p79
(dp80
g7
F0.989592969417572
sg8
F0.0016712903759276577
ssS'tag:[26.5,28.5]'
p81
(dp82
g7
F0.9918177127838135
sg8
F0.0025837160039769752
ssS'tag:[16.5,18.5]'
p83
(dp84
g7
F0.9934971928596497
sg8
F0.0004770687528755114
ssS'tag:[6.5,8.5]'
p85
(dp86
g7
F0.9958537817001343
sg8
F0.0006103268839944783
ssS'tag:[18.5,20.5]'
p87
(dp88
g7
F0.9938337802886963
sg8
F0.0005966917273249754
ssS'tag:[10.5,12.5]'
p89
(dp90
g7
F0.9950073957443237
sg8
F0.0003972621231916275
ssS'tag:[14.5,16.5]'
p91
(dp92
g7
F0.9943727254867554
sg8
F0.0004110854629959173
ssS'tag:[2.5,4.5]'
p93
(dp94
g7
F0.9982534050941467
sg8
F0.0020244816572651016
ssS'tag:[28.5,30.5]'
p95
(dp96
g7
F0.985401451587677
sg8
F0.004175830142783039
ssS'tag:[20.5,22.5]'
p97
(dp98
g7
F0.9927083253860474
sg8
F0.0007868055164689635
ssS'tag:[0.5,2.5]'
p99
(dp100
g7
F0.9907785058021545
sg8
F0.006478854167697734
ssS'tag:[12.5,14.5]'
p101
(dp102
g7
F0.994306743144989
sg8
F0.00038511657922701457
ssS'tag:[4.5,6.5]'
p103
(dp104
g7
F0.9968036413192749
sg8
F0.0009663360323101085
ssssS'MC_NUM_LooseRelTkIso_DEN_HighPtID_PAR_pt_spliteta_bin1'
p105
(dp106
S'abseta_pair_ne_ratio'
p107
(dp108
S'abseta:[0.0,0.9]'
p109
(dp110
S'pair:[55.0,60.0]'
p111
(dp112
g7
F0.9997057318687439
sg8
F0.0005322532799771735
ssS'pair:[25.0,30.0]'
p113
(dp114
g7
F0.9980282187461853
sg8
F0.0009262787376823038
ssS'pair:[30.0,40.0]'
p115
(dp116
g7
F0.9985208511352539
sg8
F0.0003066960998171192
ssS'pair:[50.0,55.0]'
p117
(dp118
g7
F0.9991201758384705
sg8
F0.00035533358290298315
ssS'pair:[40.0,50.0]'
p119
(dp120
g7
F0.9990598559379578
sg8
F7.970891989982363e-06
ssS'pair:[100.0,200.0]'
p121
(dp122
g7
F1.0015032291412354
sg8
F0.001036734027749852
ssS'pair:[60.0,100.0]'
p123
(dp124
g7
F0.9993916749954224
sg8
F0.0004117611457494324
ssS'pair:[20.0,25.0]'
p125
(dp126
g7
F0.9925615191459656
sg8
F0.0017546934612184522
sssS'abseta:[1.2,2.1]'
p127
(dp128
S'pair:[55.0,60.0]'
p129
(dp130
g7
F0.9986302256584167
sg8
F0.0005564951952414913
ssS'pair:[25.0,30.0]'
p131
(dp132
g7
F0.9999507665634155
sg8
F0.0008588769883270621
ssS'pair:[30.0,40.0]'
p133
(dp134
g7
F1.0005158185958862
sg8
F0.0003524724925330587
ssS'pair:[50.0,55.0]'
p135
(dp136
g7
F0.9990432262420654
sg8
F0.00038367637991121745
ssS'pair:[40.0,50.0]'
p137
(dp138
g7
F1.000373125076294
sg8
F0.00017343097101826365
ssS'pair:[100.0,200.0]'
p139
(dp140
g7
F0.9990498423576355
sg8
F0.0009681446008245335
ssS'pair:[60.0,100.0]'
p141
(dp142
g7
F0.9995407462120056
sg8
F0.00046528069820685945
ssS'pair:[20.0,25.0]'
p143
(dp144
g7
F0.9966857433319092
sg8
F0.0013462104246915567
sssS'abseta:[2.1,2.4]'
p145
(dp146
S'pair:[55.0,60.0]'
p147
(dp148
g7
F0.9997926354408264
sg8
F0.0009734060724849069
ssS'pair:[25.0,30.0]'
p149
(dp150
g7
F1.0031191110610962
sg8
F0.0013665492843678438
ssS'pair:[30.0,40.0]'
p151
(dp152
g7
F1.001217246055603
sg8
F0.0005597488153916501
ssS'pair:[50.0,55.0]'
p153
(dp154
g7
F0.9995313882827759
sg8
F0.0006739667575143912
ssS'pair:[40.0,50.0]'
p155
(dp156
g7
F1.0001511573791504
sg8
F0.00035476008115587924
ssS'pair:[100.0,200.0]'
p157
(dp158
g7
F1.0013121366500854
sg8
F0.0025729736153882045
ssS'pair:[60.0,100.0]'
p159
(dp160
g7
F1.0006314516067505
sg8
F0.0010691749492045802
ssS'pair:[20.0,25.0]'
p161
(dp162
g7
F1.0009387731552124
sg8
F0.0027821846478584644
sssS'abseta:[0.9,1.2]'
p163
(dp164
S'pair:[55.0,60.0]'
p165
(dp166
g7
F1.000369668006897
sg8
F0.0009329423937544387
ssS'pair:[25.0,30.0]'
p167
(dp168
g7
F0.9998737573623657
sg8
F0.001633781617559586
ssS'pair:[30.0,40.0]'
p169
(dp170
g7
F0.9999780654907227
sg8
F0.0006046502772514478
ssS'pair:[50.0,55.0]'
p171
(dp172
g7
F0.9991618394851685
sg8
F0.0006608747268952645
ssS'pair:[40.0,50.0]'
p173
(dp174
g7
F0.9996811747550964
sg8
F0.00874547904157863
ssS'pair:[100.0,200.0]'
p175
(dp176
g7
F0.9985989928245544
sg8
F0.0023699501107025656
ssS'pair:[60.0,100.0]'
p177
(dp178
g7
F0.999370813369751
sg8
F0.0007185672974601526
ssS'pair:[20.0,25.0]'
p179
(dp180
g7
F0.9942803978919983
sg8
F0.0026645316146630205
ssssS'pair_ne_ratio'
p181
(dp182
S'pair:[55.0,60.0]'
p183
(dp184
S'ne:[2.1,2.4]'
p185
(dp186
g7
F1.0017164945602417
sg8
F0.0009741334244261627
ssS'ne:[1.2,2.1]'
p187
(dp188
g7
F1.0005759000778198
sg8
F0.0005685512583641175
ssS'ne:[0.0,0.9]'
p189
(dp190
g7
F0.9940818548202515
sg8
F0.9940819076347168
ssS'ne:[0.9,1.2]'
p191
(dp192
g7
F0.9952620267868042
sg8
F0.9952621862867743
sssS'pair:[25.0,30.0]'
p193
(dp194
S'ne:[2.1,2.4]'
p195
(dp196
g7
F1.0238361358642578
sg8
F0.0015355144964010678
ssS'ne:[1.2,2.1]'
p197
(dp198
g7
F1.0114730596542358
sg8
F0.000879063641157633
ssS'ne:[0.0,0.9]'
p199
(dp200
g7
F0.9528419375419617
sg8
F0.03946414955928606
ssS'ne:[0.9,1.2]'
p201
(dp202
g7
F0.9558383822441101
sg8
F0.039596936167465305
sssS'pair:[30.0,40.0]'
p203
(dp204
S'ne:[2.1,2.4]'
p205
(dp206
g7
F1.0117652416229248
sg8
F0.0005644222629361836
ssS'ne:[1.2,2.1]'
p207
(dp208
g7
F1.003836989402771
sg8
F0.0003220524839842738
ssS'ne:[0.0,0.9]'
p209
(dp210
g7
F0.9758670330047607
sg8
F0.022636919451541542
ssS'ne:[0.9,1.2]'
p211
(dp212
g7
F0.9770950675010681
sg8
F0.022668275626824295
sssS'pair:[50.0,55.0]'
p213
(dp214
S'ne:[2.1,2.4]'
p215
(dp216
g7
F1.0020452737808228
sg8
F0.0006649582374543213
ssS'ne:[1.2,2.1]'
p217
(dp218
g7
F1.0003442764282227
sg8
F0.00037927162529717204
ssS'ne:[0.0,0.9]'
p219
(dp220
g7
F0.9934316873550415
sg8
F0.00022598726662095294
ssS'ne:[0.9,1.2]'
p221
(dp222
g7
F0.9935193061828613
sg8
F0.00043320139623427155
sssS'pair:[40.0,50.0]'
p223
(dp224
S'ne:[2.1,2.4]'
p225
(dp226
g7
F1.003623366355896
sg8
F0.0002348371673951786
ssS'ne:[1.2,2.1]'
p227
(dp228
g7
F1.001857876777649
sg8
F0.00011537178454843146
ssS'ne:[0.0,0.9]'
p229
(dp230
g7
F0.9901612401008606
sg8
F0.11242135693599815
ssS'ne:[0.9,1.2]'
p231
(dp232
g7
F0.9913275837898254
sg8
F0.11288739617442897
sssS'pair:[100.0,200.0]'
p233
(dp234
S'ne:[2.1,2.4]'
p235
(dp236
g7
F1.0032325983047485
sg8
F0.002480785693428251
ssS'ne:[1.2,2.1]'
p237
(dp238
g7
F1.0014582872390747
sg8
F0.001116468632990918
ssS'ne:[0.0,0.9]'
p239
(dp240
g7
F0.9975077509880066
sg8
F0.9975080294364448
ssS'ne:[0.9,1.2]'
p241
(dp242
g7
F0.994007408618927
sg8
F0.9940090784126949
sssS'pair:[60.0,100.0]'
p243
(dp244
S'ne:[2.1,2.4]'
p245
(dp246
g7
F1.0016127824783325
sg8
F0.0008043391656745956
ssS'ne:[1.2,2.1]'
p247
(dp248
g7
F1.0003165006637573
sg8
F0.0004317959350636272
ssS'ne:[0.0,0.9]'
p249
(dp250
g7
F0.9947265982627869
sg8
F0.9947266279720726
ssS'ne:[0.9,1.2]'
p251
(dp252
g7
F0.9954408407211304
sg8
F0.9954409313074852
sssS'pair:[20.0,25.0]'
p253
(dp254
S'ne:[2.1,2.4]'
p255
(dp256
g7
F1.0217385292053223
sg8
F0.002936654491166399
ssS'ne:[1.2,2.1]'
p257
(dp258
g7
F1.0132032632827759
sg8
F0.001511335349389176
ssS'ne:[0.0,0.9]'
p259
(dp260
g7
F0.9362564086914062
sg8
F0.009879994878867213
ssS'ne:[0.9,1.2]'
p261
(dp262
g7
F0.9443747997283936
sg8
F0.010045454170231694
sssssS'MC_NUM_LooseRelIso_DEN_TightID_PAR_pt_spliteta_bin1'
p263
(dp264
S'pt_abseta_ratio'
p265
(dp266
S'pt:[100.0,200.0]'
p267
(dp268
S'abseta:[0.0,0.9]'
p269
(dp270
g7
F1.0009629726409912
sg8
F0.001617788531378175
ssS'abseta:[1.2,2.1]'
p271
(dp272
g7
F1.000533938407898
sg8
F0.0017624837500966736
ssS'abseta:[2.1,2.4]'
p273
(dp274
g7
F1.0029584169387817
sg8
F0.005186257898457103
ssS'abseta:[0.9,1.2]'
p275
(dp276
g7
F0.9982506036758423
sg8
F0.003926072892845452
sssS'pt:[25.0,30.0]'
p277
(dp278
S'abseta:[0.0,0.9]'
p279
(dp280
g7
F0.9967027306556702
sg8
F0.0011019279280748459
ssS'abseta:[1.2,2.1]'
p281
(dp282
g7
F0.9990467429161072
sg8
F0.0009323602172980526
ssS'abseta:[2.1,2.4]'
p283
(dp284
g7
F0.9999136328697205
sg8
F0.001523418950980836
ssS'abseta:[0.9,1.2]'
p285
(dp286
g7
F0.9988518357276917
sg8
F0.0019503356170215722
sssS'pt:[30.0,40.0]'
p287
(dp288
S'abseta:[0.0,0.9]'
p289
(dp290
g7
F0.9988803267478943
sg8
F0.00035278707107623417
ssS'abseta:[1.2,2.1]'
p291
(dp292
g7
F1.000938057899475
sg8
F0.0003666017593336888
ssS'abseta:[2.1,2.4]'
p293
(dp294
g7
F0.9995460510253906
sg8
F0.0006612754025857557
ssS'abseta:[0.9,1.2]'
p295
(dp296
g7
F1.0004411935806274
sg8
F0.0006586121115651184
sssS'pt:[60.0,100.0]'
p297
(dp298
S'abseta:[0.0,0.9]'
p299
(dp300
g7
F0.9996585249900818
sg8
F0.00038826136464615934
ssS'abseta:[1.2,2.1]'
p301
(dp302
g7
F0.999712347984314
sg8
F0.00040019861843453616
ssS'abseta:[2.1,2.4]'
p303
(dp304
g7
F1.0001808404922485
sg8
F0.0008529077659618197
ssS'abseta:[0.9,1.2]'
p305
(dp306
g7
F1.0006834268569946
sg8
F0.0006369673935585709
sssS'pt:[20.0,25.0]'
p307
(dp308
S'abseta:[0.0,0.9]'
p309
(dp310
g7
F0.9931753277778625
sg8
F0.002115335518251554
ssS'abseta:[1.2,2.1]'
p311
(dp312
g7
F0.9972883462905884
sg8
F0.0014491481606578392
ssS'abseta:[2.1,2.4]'
p313
(dp314
g7
F0.9937894344329834
sg8
F0.002408192164668997
ssS'abseta:[0.9,1.2]'
p315
(dp316
g7
F0.9990167021751404
sg8
F0.0031108495993511717
sssS'pt:[40.0,50.0]'
p317
(dp318
S'abseta:[0.0,0.9]'
p319
(dp320
g7
F0.9988864660263062
sg8
F0.00012825965440265092
ssS'abseta:[1.2,2.1]'
p321
(dp322
g7
F0.9996442794799805
sg8
F8.29664598498308e-05
ssS'abseta:[2.1,2.4]'
p323
(dp324
g7
F1.0001903772354126
sg8
F0.00026661049136865434
ssS'abseta:[0.9,1.2]'
p325
(dp326
g7
F0.9996278882026672
sg8
F0.00014906185257284642
sssS'pt:[50.0,60.0]'
p327
(dp328
S'abseta:[0.0,0.9]'
p329
(dp330
g7
F0.9999578595161438
sg8
F0.0002943400262320036
ssS'abseta:[1.2,2.1]'
p331
(dp332
g7
F1.0001275539398193
sg8
F0.0004866266590741648
ssS'abseta:[2.1,2.4]'
p333
(dp334
g7
F0.9995580911636353
sg8
F0.000576813184648023
ssS'abseta:[0.9,1.2]'
p335
(dp336
g7
F0.9999514818191528
sg8
F0.0004938619017111511
ssssS'abseta_pt_ratio'
p337
(dp338
S'abseta:[0.0,0.9]'
p339
(dp340
S'pt:[100.0,200.0]'
p341
(dp342
g7
F1.0009629726409912
sg8
F0.001617788531378175
ssS'pt:[25.0,30.0]'
p343
(dp344
g7
F0.9967027306556702
sg8
F0.0011019279280748459
ssS'pt:[30.0,40.0]'
p345
(dp346
g7
F0.9988803267478943
sg8
F0.00035278707107623417
ssS'pt:[60.0,100.0]'
p347
(dp348
g7
F0.9996585249900818
sg8
F0.00038826136464615934
ssS'pt:[20.0,25.0]'
p349
(dp350
g7
F0.9931753277778625
sg8
F0.002115335518251554
ssS'pt:[40.0,50.0]'
p351
(dp352
g7
F0.9988864660263062
sg8
F0.00012825965440265092
ssS'pt:[50.0,60.0]'
p353
(dp354
g7
F0.9999578595161438
sg8
F0.0002943400262320036
sssS'abseta:[1.2,2.1]'
p355
(dp356
S'pt:[100.0,200.0]'
p357
(dp358
g7
F1.000533938407898
sg8
F0.0017624837500966736
ssS'pt:[25.0,30.0]'
p359
(dp360
g7
F0.9990467429161072
sg8
F0.0009323602172980526
ssS'pt:[30.0,40.0]'
p361
(dp362
g7
F1.000938057899475
sg8
F0.0003666017593336888
ssS'pt:[60.0,100.0]'
p363
(dp364
g7
F0.999712347984314
sg8
F0.00040019861843453616
ssS'pt:[20.0,25.0]'
p365
(dp366
g7
F0.9972883462905884
sg8
F0.0014491481606578392
ssS'pt:[40.0,50.0]'
p367
(dp368
g7
F0.9996442794799805
sg8
F8.29664598498308e-05
ssS'pt:[50.0,60.0]'
p369
(dp370
g7
F1.0001275539398193
sg8
F0.0004866266590741648
sssS'abseta:[2.1,2.4]'
p371
(dp372
S'pt:[100.0,200.0]'
p373
(dp374
g7
F1.0029584169387817
sg8
F0.005186257898457103
ssS'pt:[25.0,30.0]'
p375
(dp376
g7
F0.9999136328697205
sg8
F0.001523418950980836
ssS'pt:[30.0,40.0]'
p377
(dp378
g7
F0.9995460510253906
sg8
F0.0006612754025857557
ssS'pt:[60.0,100.0]'
p379
(dp380
g7
F1.0001808404922485
sg8
F0.0008529077659618197
ssS'pt:[20.0,25.0]'
p381
(dp382
g7
F0.9937894344329834
sg8
F0.002408192164668997
ssS'pt:[40.0,50.0]'
p383
(dp384
g7
F1.0001903772354126
sg8
F0.00026661049136865434
ssS'pt:[50.0,60.0]'
p385
(dp386
g7
F0.9995580911636353
sg8
F0.000576813184648023
sssS'abseta:[0.9,1.2]'
p387
(dp388
S'pt:[100.0,200.0]'
p389
(dp390
g7
F0.9982506036758423
sg8
F0.003926072892845452
ssS'pt:[25.0,30.0]'
p391
(dp392
g7
F0.9988518357276917
sg8
F0.0019503356170215722
ssS'pt:[30.0,40.0]'
p393
(dp394
g7
F1.0004411935806274
sg8
F0.0006586121115651184
ssS'pt:[60.0,100.0]'
p395
(dp396
g7
F1.0006834268569946
sg8
F0.0006369673935585709
ssS'pt:[20.0,25.0]'
p397
(dp398
g7
F0.9990167021751404
sg8
F0.0031108495993511717
ssS'pt:[40.0,50.0]'
p399
(dp400
g7
F0.9996278882026672
sg8
F0.00014906185257284642
ssS'pt:[50.0,60.0]'
p401
(dp402
g7
F0.9999514818191528
sg8
F0.0004938619017111511
sssssS'MC_NUM_LooseRelTkIso_DEN_TightID_PAR_pt_alleta_bin1'
p403
(dp404
S'pt_ratio'
p405
(dp406
S'pt:[100.0,200.0]'
p407
(dp408
g7
F0.9999968409538269
sg8
F0.0009508665289744726
ssS'pt:[25.0,30.0]'
p409
(dp410
g7
F0.999926745891571
sg8
F0.0006211363666781333
ssS'pt:[30.0,40.0]'
p411
(dp412
g7
F0.9995817542076111
sg8
F0.00022951691326116914
ssS'pt:[60.0,100.0]'
p413
(dp414
g7
F0.9991470575332642
sg8
F0.00028243364426783544
ssS'pt:[20.0,25.0]'
p415
(dp416
g7
F0.9976534247398376
sg8
F0.00103730373370197
ssS'pt:[40.0,50.0]'
p417
(dp418
g7
F0.9994581341743469
sg8
F6.971921142373537e-05
ssS'pt:[50.0,60.0]'
p419
(dp420
g7
F0.9993208050727844
sg8
F0.00021844222626653747
ssssS'MC_NUM_LooseRelIso_DEN_TightID_PAR_pt_alleta_bin1'
p421
(dp422
S'pt_ratio'
p423
(dp424
S'pt:[100.0,200.0]'
p425
(dp426
g7
F1.000893235206604
sg8
F0.0011707933422039156
ssS'pt:[25.0,30.0]'
p427
(dp428
g7
F0.9985461831092834
sg8
F0.0006396726557227034
ssS'pt:[30.0,40.0]'
p429
(dp430
g7
F0.999740719795227
sg8
F0.00022626526790182083
ssS'pt:[60.0,100.0]'
p431
(dp432
g7
F1.0001068115234375
sg8
F0.00024894353767708884
ssS'pt:[20.0,25.0]'
p433
(dp434
g7
F0.9967019557952881
sg8
F0.0010781002469805103
ssS'pt:[40.0,50.0]'
p435
(dp436
g7
F0.9992411136627197
sg8
F5.565075386895262e-05
ssS'pt:[50.0,60.0]'
p437
(dp438
g7
F0.9999904632568359
sg8
F0.00020063201597906628
ssssS'MC_NUM_TightRelIso_DEN_TightID_PAR_eta'
p439
(dp440
S'eta_ratio'
p441
(dp442
S'eta:[-0.2,0.2]'
p443
(dp444
g7
F0.9931157231330872
sg8
F0.0006129018963013146
ssS'eta:[-2.4,-2.1]'
p445
(dp446
g7
F0.9920798540115356
sg8
F0.0008230430157708596
ssS'eta:[0.3,0.9]'
p447
(dp448
g7
F0.9961240887641907
sg8
F0.0004897925838971014
ssS'eta:[-0.9,-0.3]'
p449
(dp450
g7
F0.9942046403884888
sg8
F0.0004942272681155549
ssS'eta:[0.2,0.3]'
p451
(dp452
g7
F0.9952659010887146
sg8
F0.001293040986929012
ssS'eta:[0.9,1.2]'
p453
(dp454
g7
F0.9974220991134644
sg8
F0.0007085974211529661
ssS'eta:[-1.2,-0.9]'
p455
(dp456
g7
F0.9973693490028381
sg8
F0.0007072455079328813
ssS'eta:[2.1,2.4]'
p457
(dp458
g7
F0.9913573861122131
sg8
F0.0008120927692969357
ssS'eta:[-1.6,-1.2]'
p459
(dp460
g7
F0.9963793158531189
sg8
F0.0005941987656468546
ssS'eta:[1.2,1.6]'
p461
(dp462
g7
F0.9972472786903381
sg8
F0.0005929027562819613
ssS'eta:[-2.1,-1.6]'
p463
(dp464
g7
F0.9951938986778259
sg8
F0.000548126230449412
ssS'eta:[-0.3,-0.2]'
p465
(dp466
g7
F0.9938337206840515
sg8
F0.0012886950803224423
ssS'eta:[1.6,2.1]'
p467
(dp468
g7
F0.9950494766235352
sg8
F0.0005381358046851335
ssssS'MC_NUM_LooseRelTkIso_DEN_TightID_PAR_eta'
p469
(dp470
S'eta_ratio'
p471
(dp472
S'eta:[-0.2,0.2]'
p473
(dp474
g7
F0.9999819993972778
sg8
F0.0003156089686760325
ssS'eta:[-2.4,-2.1]'
p475
(dp476
g7
F1.000174641609192
sg8
F0.00046928731291578186
ssS'eta:[0.3,0.9]'
p477
(dp478
g7
F0.9993343353271484
sg8
F0.0002668803346068762
ssS'eta:[-0.9,-0.3]'
p479
(dp480
g7
F0.9992204308509827
sg8
F0.00026793159368459265
ssS'eta:[0.2,0.3]'
p481
(dp482
g7
F0.9997360706329346
sg8
F0.0006871615553318498
ssS'eta:[0.9,1.2]'
p483
(dp484
g7
F0.9994667768478394
sg8
F0.00039562654511738965
ssS'eta:[-1.2,-0.9]'
p485
(dp486
g7
F0.9997488260269165
sg8
F0.0003988823012376646
ssS'eta:[2.1,2.4]'
p487
(dp488
g7
F1.000598669052124
sg8
F0.0004749549809196662
ssS'eta:[-1.6,-1.2]'
p489
(dp490
g7
F0.9992608428001404
sg8
F0.00035171146410185156
ssS'eta:[1.2,1.6]'
p491
(dp492
g7
F0.9995406866073608
sg8
F0.0003538625518782152
ssS'eta:[-2.1,-1.6]'
p493
(dp494
g7
F0.9990918636322021
sg8
F0.00034094273812869847
ssS'eta:[-0.3,-0.2]'
p495
(dp496
g7
F0.9993258118629456
sg8
F0.0006751713829422868
ssS'eta:[1.6,2.1]'
p497
(dp498
g7
F0.9994271397590637
sg8
F0.0003394310163660215
ssssS'MC_NUM_LooseRelTkIso_DEN_HighPtID_PAR_eta'
p499
(dp500
S'eta_ratio'
p501
(dp502
S'eta:[-0.2,0.2]'
p503
(dp504
g7
F0.9999630451202393
sg8
F0.00031546197354436075
ssS'eta:[-2.4,-2.1]'
p505
(dp506
g7
F1.0000325441360474
sg8
F0.0004687951295293968
ssS'eta:[0.3,0.9]'
p507
(dp508
g7
F0.999321699142456
sg8
F0.0002675807550097052
ssS'eta:[-0.9,-0.3]'
p509
(dp510
g7
F0.9992476105690002
sg8
F0.0002672832462732646
ssS'eta:[0.2,0.3]'
p511
(dp512
g7
F0.9997190833091736
sg8
F0.0006898365450589204
ssS'eta:[0.9,1.2]'
p513
(dp514
g7
F0.9994390606880188
sg8
F0.00039521845999567195
ssS'eta:[-1.2,-0.9]'
p515
(dp516
g7
F0.9997152090072632
sg8
F0.00039718363234578436
ssS'eta:[2.1,2.4]'
p517
(dp518
g7
F1.0005131959915161
sg8
F0.0004742389249987574
ssS'eta:[-1.6,-1.2]'
p519
(dp520
g7
F0.9992843270301819
sg8
F0.00035189007216980355
ssS'eta:[1.2,1.6]'
p521
(dp522
g7
F0.9995309710502625
sg8
F0.0003542471836533695
ssS'eta:[-2.1,-1.6]'
p523
(dp524
g7
F0.9990682601928711
sg8
F0.00034103216803067375
ssS'eta:[-0.3,-0.2]'
p525
(dp526
g7
F0.9993409514427185
sg8
F0.0006757151840297916
ssS'eta:[1.6,2.1]'
p527
(dp528
g7
F0.9993483424186707
sg8
F0.0003395163324760962
ssssS'MC_NUM_TightRelIso_DEN_TightID_PAR_pt_alleta_bin1'
p529
(dp530
S'pt_ratio'
p531
(dp532
S'pt:[100.0,200.0]'
p533
(dp534
g7
F1.0017163753509521
sg8
F0.0015859595695806115
ssS'pt:[25.0,30.0]'
p535
(dp536
g7
F0.9922895431518555
sg8
F0.0009572815793991382
ssS'pt:[30.0,40.0]'
p537
(dp538
g7
F0.9946798086166382
sg8
F0.0003677962931444449
ssS'pt:[60.0,100.0]'
p539
(dp540
g7
F0.9988709092140198
sg8
F0.00043497976533286967
ssS'pt:[20.0,25.0]'
p541
(dp542
g7
F0.9873178005218506
sg8
F0.0015505494025827538
ssS'pt:[40.0,50.0]'
p543
(dp544
g7
F0.9958022236824036
sg8
F0.00016196738970425625
ssS'pt:[50.0,60.0]'
p545
(dp546
g7
F0.9975654482841492
sg8
F0.00034277394581321127
ssssS'MC_NUM_LooseRelIso_DEN_TightID_PAR_eta'
p547
(dp548
S'eta_ratio'
p549
(dp550
S'eta:[-0.2,0.2]'
p551
(dp552
g7
F0.9990152716636658
sg8
F0.0003264034627005076
ssS'eta:[-2.4,-2.1]'
p553
(dp554
g7
F0.9985752701759338
sg8
F0.0004508740798363574
ssS'eta:[0.3,0.9]'
p555
(dp556
g7
F0.9999826550483704
sg8
F0.00026051962775419023
ssS'eta:[-0.9,-0.3]'
p557
(dp558
g7
F0.9995573163032532
sg8
F0.0002639991699091956
ssS'eta:[0.2,0.3]'
p559
(dp560
g7
F0.9993895292282104
sg8
F0.0006852287875806392
ssS'eta:[0.9,1.2]'
p561
(dp562
g7
F0.9999223351478577
sg8
F0.00037814500749117785
ssS'eta:[-1.2,-0.9]'
p563
(dp564
g7
F0.9993334412574768
sg8
F0.0003846577119731959
ssS'eta:[2.1,2.4]'
p565
(dp566
g7
F0.9987003207206726
sg8
F0.0004456345522682761
ssS'eta:[-1.6,-1.2]'
p567
(dp568
g7
F0.9994874000549316
sg8
F0.0003240881440008967
ssS'eta:[1.2,1.6]'
p569
(dp570
g7
F0.9999566078186035
sg8
F0.0003212435703864205
ssS'eta:[-2.1,-1.6]'
p571
(dp572
g7
F0.9993423819541931
sg8
F0.0002977840497753589
ssS'eta:[-0.3,-0.2]'
p573
(dp574
g7
F0.9991666674613953
sg8
F0.0006935358691422666
ssS'eta:[1.6,2.1]'
p575
(dp576
g7
F0.9996390342712402
sg8
F0.0002927438408055714
ssssS'MC_NUM_TightRelIso_DEN_TightID_PAR_pt_spliteta_bin1'
p577
(dp578
S'pt_abseta_ratio'
p579
(dp580
S'pt:[100.0,200.0]'
p581
(dp582
S'abseta:[0.0,0.9]'
p583
(dp584
g7
F1.0000724792480469
sg8
F0.002222422160643971
ssS'abseta:[1.2,2.1]'
p585
(dp586
g7
F1.0057064294815063
sg8
F0.0028140574267619066
ssS'abseta:[2.1,2.4]'
p587
(dp588
g7
F0.9985803365707397
sg8
F0.0058726487805307965
ssS'abseta:[0.9,1.2]'
p589
(dp590
g7
F0.995708703994751
sg8
F0.004245656586527022
sssS'pt:[25.0,30.0]'
p591
(dp592
S'abseta:[0.0,0.9]'
p593
(dp594
g7
F0.9886054992675781
sg8
F0.0016634433524109712
ssS'abseta:[1.2,2.1]'
p595
(dp596
g7
F0.993867039680481
sg8
F0.0014007419149518812
ssS'abseta:[2.1,2.4]'
p597
(dp598
g7
F0.9875286817550659
sg8
F0.0023764308281116297
ssS'abseta:[0.9,1.2]'
p599
(dp600
g7
F0.9947086572647095
sg8
F0.0028920173248519142
sssS'pt:[30.0,40.0]'
p601
(dp602
S'abseta:[0.0,0.9]'
p603
(dp604
g7
F0.9920431971549988
sg8
F0.0005805560813145216
ssS'abseta:[1.2,2.1]'
p605
(dp606
g7
F0.9975237250328064
sg8
F0.0005823808074392039
ssS'abseta:[2.1,2.4]'
p607
(dp608
g7
F0.9935393333435059
sg8
F0.0010182221975454573
ssS'abseta:[0.9,1.2]'
p609
(dp610
g7
F0.9980897307395935
sg8
F0.0010610536088029978
sssS'pt:[60.0,100.0]'
p611
(dp612
S'abseta:[0.0,0.9]'
p613
(dp614
g7
F0.9990229606628418
sg8
F0.0007038512350749697
ssS'abseta:[1.2,2.1]'
p615
(dp616
g7
F0.9984328150749207
sg8
F0.0006696394667707392
ssS'abseta:[2.1,2.4]'
p617
(dp618
g7
F1.0007342100143433
sg8
F0.0015364351699758325
ssS'abseta:[0.9,1.2]'
p619
(dp620
g7
F0.9995092749595642
sg8
F0.0011041416677162598
sssS'pt:[20.0,25.0]'
p621
(dp622
S'abseta:[0.0,0.9]'
p623
(dp624
g7
F0.9823234677314758
sg8
F0.0029855446582054213
ssS'abseta:[1.2,2.1]'
p625
(dp626
g7
F0.9868592023849487
sg8
F0.002204217654985807
ssS'abseta:[2.1,2.4]'
p627
(dp628
g7
F0.9833972454071045
sg8
F0.003817187756224348
ssS'abseta:[0.9,1.2]'
p629
(dp630
g7
F0.9860090017318726
sg8
F0.004568715385396271
sssS'pt:[40.0,50.0]'
p631
(dp632
S'abseta:[0.0,0.9]'
p633
(dp634
g7
F0.994218111038208
sg8
F0.0003277836850842043
ssS'abseta:[1.2,2.1]'
p635
(dp636
g7
F0.9979499578475952
sg8
F0.0002468530641184205
ssS'abseta:[2.1,2.4]'
p637
(dp638
g7
F0.9963923096656799
sg8
F0.0003940464970303633
ssS'abseta:[0.9,1.2]'
p639
(dp640
g7
F0.9978734254837036
sg8
F0.0004481706040350485
sssS'pt:[50.0,60.0]'
p641
(dp642
S'abseta:[0.0,0.9]'
p643
(dp644
g7
F0.9964566826820374
sg8
F0.0005562091096670812
ssS'abseta:[1.2,2.1]'
p645
(dp646
g7
F0.9990477561950684
sg8
F0.0005205625641118538
ssS'abseta:[2.1,2.4]'
p647
(dp648
g7
F0.9979455471038818
sg8
F0.001082519648965215
ssS'abseta:[0.9,1.2]'
p649
(dp650
g7
F0.9993523359298706
sg8
F0.000926904439542756
ssssS'abseta_pt_ratio'
p651
(dp652
S'abseta:[0.0,0.9]'
p653
(dp654
S'pt:[100.0,200.0]'
p655
(dp656
g7
F1.0000724792480469
sg8
F0.002222422160643971
ssS'pt:[25.0,30.0]'
p657
(dp658
g7
F0.9886054992675781
sg8
F0.0016634433524109712
ssS'pt:[30.0,40.0]'
p659
(dp660
g7
F0.9920431971549988
sg8
F0.0005805560813145216
ssS'pt:[60.0,100.0]'
p661
(dp662
g7
F0.9990229606628418
sg8
F0.0007038512350749697
ssS'pt:[20.0,25.0]'
p663
(dp664
g7
F0.9823234677314758
sg8
F0.0029855446582054213
ssS'pt:[40.0,50.0]'
p665
(dp666
g7
F0.994218111038208
sg8
F0.0003277836850842043
ssS'pt:[50.0,60.0]'
p667
(dp668
g7
F0.9964566826820374
sg8
F0.0005562091096670812
sssS'abseta:[1.2,2.1]'
p669
(dp670
S'pt:[100.0,200.0]'
p671
(dp672
g7
F1.0057064294815063
sg8
F0.0028140574267619066
ssS'pt:[25.0,30.0]'
p673
(dp674
g7
F0.993867039680481
sg8
F0.0014007419149518812
ssS'pt:[30.0,40.0]'
p675
(dp676
g7
F0.9975237250328064
sg8
F0.0005823808074392039
ssS'pt:[60.0,100.0]'
p677
(dp678
g7
F0.9984328150749207
sg8
F0.0006696394667707392
ssS'pt:[20.0,25.0]'
p679
(dp680
g7
F0.9868592023849487
sg8
F0.002204217654985807
ssS'pt:[40.0,50.0]'
p681
(dp682
g7
F0.9979499578475952
sg8
F0.0002468530641184205
ssS'pt:[50.0,60.0]'
p683
(dp684
g7
F0.9990477561950684
sg8
F0.0005205625641118538
sssS'abseta:[2.1,2.4]'
p685
(dp686
S'pt:[100.0,200.0]'
p687
(dp688
g7
F0.9985803365707397
sg8
F0.0058726487805307965
ssS'pt:[25.0,30.0]'
p689
(dp690
g7
F0.9875286817550659
sg8
F0.0023764308281116297
ssS'pt:[30.0,40.0]'
p691
(dp692
g7
F0.9935393333435059
sg8
F0.0010182221975454573
ssS'pt:[60.0,100.0]'
p693
(dp694
g7
F1.0007342100143433
sg8
F0.0015364351699758325
ssS'pt:[20.0,25.0]'
p695
(dp696
g7
F0.9833972454071045
sg8
F0.003817187756224348
ssS'pt:[40.0,50.0]'
p697
(dp698
g7
F0.9963923096656799
sg8
F0.0003940464970303633
ssS'pt:[50.0,60.0]'
p699
(dp700
g7
F0.9979455471038818
sg8
F0.001082519648965215
sssS'abseta:[0.9,1.2]'
p701
(dp702
S'pt:[100.0,200.0]'
p703
(dp704
g7
F0.995708703994751
sg8
F0.004245656586527022
ssS'pt:[25.0,30.0]'
p705
(dp706
g7
F0.9947086572647095
sg8
F0.0028920173248519142
ssS'pt:[30.0,40.0]'
p707
(dp708
g7
F0.9980897307395935
sg8
F0.0010610536088029978
ssS'pt:[60.0,100.0]'
p709
(dp710
g7
F0.9995092749595642
sg8
F0.0011041416677162598
ssS'pt:[20.0,25.0]'
p711
(dp712
g7
F0.9860090017318726
sg8
F0.004568715385396271
ssS'pt:[40.0,50.0]'
p713
(dp714
g7
F0.9978734254837036
sg8
F0.0004481706040350485
ssS'pt:[50.0,60.0]'
p715
(dp716
g7
F0.9993523359298706
sg8
F0.000926904439542756
sssssS'MC_NUM_LooseRelTkIso_DEN_TightID_PAR_vtx'
p717
(dp718
S'tag_nVertices_ratio'
p719
(dp720
S'tag:[22.5,24.5]'
p721
(dp722
g7
F0.9986825585365295
sg8
F0.0007374560438307606
ssS'tag:[8.5,10.5]'
p723
(dp724
g7
F0.9996398687362671
sg8
F0.00029201986713423624
ssS'tag:[24.5,26.5]'
p725
(dp726
g7
F0.9996345639228821
sg8
F0.0010539173434244633
ssS'tag:[26.5,28.5]'
p727
(dp728
g7
F0.999656081199646
sg8
F0.0015688475729577866
ssS'tag:[16.5,18.5]'
p729
(dp730
g7
F0.998607873916626
sg8
F0.00029947121517064383
ssS'tag:[6.5,8.5]'
p731
(dp732
g7
F0.9995843172073364
sg8
F0.00039685874286516396
ssS'tag:[18.5,20.5]'
p733
(dp734
g7
F0.9999516010284424
sg8
F0.0003861796481773027
ssS'tag:[10.5,12.5]'
p735
(dp736
g7
F0.9997382164001465
sg8
F0.00025081939429604124
ssS'tag:[14.5,16.5]'
p737
(dp738
g7
F0.9991540908813477
sg8
F0.00025924575674640666
ssS'tag:[2.5,4.5]'
p739
(dp740
g7
F1.0005120038986206
sg8
F0.0013822736102806431
ssS'tag:[28.5,30.5]'
p741
(dp742
g7
F0.9976873993873596
sg8
F0.0027616579659942267
ssS'tag:[20.5,22.5]'
p743
(dp744
g7
F0.9990135431289673
sg8
F0.000509750513216868
ssS'tag:[0.5,2.5]'
p745
(dp746
g7
F0.9979358911514282
sg8
F0.004385084092603641
ssS'tag:[12.5,14.5]'
p747
(dp748
g7
F0.9992791414260864
sg8
F0.00024269980423717078
ssS'tag:[4.5,6.5]'
p749
(dp750
g7
F0.9998143911361694
sg8
F0.0006250020067444053
ssssS'MC_NUM_LooseRelTkIso_DEN_HighPtID_PAR_pt_alleta_bin1'
p751
(dp752
S'pair_ne_ratio'
p753
(dp754
S'pair:[55.0,60.0]'
p755
(dp756
g7
F0.994654655456543
sg8
F0.00021547468218621567
ssS'pair:[25.0,30.0]'
p757
(dp758
g7
F0.9606481790542603
sg8
F0.0003632682779231948
ssS'pair:[30.0,40.0]'
p759
(dp760
g7
F0.9786319136619568
sg8
F0.00013879304113156605
ssS'pair:[50.0,55.0]'
p761
(dp762
g7
F0.9939906001091003
sg8
F0.00015306312034744302
ssS'pair:[40.0,50.0]'
p763
(dp764
g7
F0.9914615154266357
sg8
F3.7197069553962514e-06
ssS'pair:[100.0,200.0]'
p765
(dp766
g7
F0.9970688819885254
sg8
F0.0005473673078479395
ssS'pair:[60.0,100.0]'
p767
(dp768
g7
F0.9952664971351624
sg8
F0.00016354880548635233
ssS'pair:[20.0,25.0]'
p769
(dp770
g7
F0.9418438076972961
sg8
F0.000583497390918805
ssssS'MC_NUM_LooseRelTkIso_DEN_HighPtID_PAR_eta_hpt'
p771
(dp772
S'eta_ratio'
p773
(dp774
S'eta:[-0.2,0.2]'
p775
(dp776
g7
F0.9991713762283325
sg8
F0.0008754209464380518
ssS'eta:[-2.4,-2.1]'
p777
(dp778
g7
F0.9996892213821411
sg8
F0.00092567955731771
ssS'eta:[0.3,0.9]'
p779
(dp780
g7
F1.0003180503845215
sg8
F0.0005403460969516672
ssS'eta:[-0.9,-0.3]'
p781
(dp782
g7
F0.9993883967399597
sg8
F0.0005316339383111245
ssS'eta:[0.2,0.3]'
p783
(dp784
g7
F0.9979031085968018
sg8
F0.0012695183694592215
ssS'eta:[0.9,1.2]'
p785
(dp786
g7
F0.998994767665863
sg8
F0.0007622002467623651
ssS'eta:[-1.2,-0.9]'
p787
(dp788
g7
F1.0008617639541626
sg8
F0.0007268091332240536
ssS'eta:[2.1,2.4]'
p789
(dp790
g7
F1.0011945962905884
sg8
F0.0009787704274499434
ssS'eta:[-1.6,-1.2]'
p791
(dp792
g7
F0.9986259341239929
sg8
F0.0007380968616074812
ssS'eta:[1.2,1.6]'
p793
(dp794
g7
F0.9992570281028748
sg8
F0.0006828067724654055
ssS'eta:[-2.1,-1.6]'
p795
(dp796
g7
F0.9993964433670044
sg8
F0.0006308996499002618
ssS'eta:[-0.3,-0.2]'
p797
(dp798
g7
F0.9980702996253967
sg8
F0.0012983812012091658
ssS'eta:[1.6,2.1]'
p799
(dp800
g7
F0.9986052513122559
sg8
F0.0006634643955467964
ssssS'MC_NUM_LooseRelTkIso_DEN_TightID_PAR_pt_spliteta_bin1'
p801
(dp802
S'pt_abseta_ratio'
p803
(dp804
S'pt:[100.0,200.0]'
p805
(dp806
S'abseta:[0.0,0.9]'
p807
(dp808
g7
F0.9974675178527832
sg8
F0.9974677987974551
ssS'abseta:[1.2,2.1]'
p809
(dp810
g7
F1.0008974075317383
sg8
F0.0011089756090677028
ssS'abseta:[2.1,2.4]'
p811
(dp812
g7
F1.0032676458358765
sg8
F0.00231762932930955
ssS'abseta:[0.9,1.2]'
p813
(dp814
g7
F0.9940467476844788
sg8
F0.9940482218492188
sssS'pt:[25.0,30.0]'
p815
(dp816
S'abseta:[0.0,0.9]'
p817
(dp818
g7
F0.9529266357421875
sg8
F0.04060888547887149
ssS'abseta:[1.2,2.1]'
p819
(dp820
g7
F1.011405348777771
sg8
F0.0008742666704997889
ssS'abseta:[2.1,2.4]'
p821
(dp822
g7
F1.023754358291626
sg8
F0.0015339878298532984
ssS'abseta:[0.9,1.2]'
p823
(dp824
g7
F0.9558559060096741
sg8
F0.04074234848479397
sssS'pt:[30.0,40.0]'
p825
(dp826
S'abseta:[0.0,0.9]'
p827
(dp828
g7
F0.9759200811386108
sg8
F0.023015258465276318
ssS'abseta:[1.2,2.1]'
p829
(dp830
g7
F1.0038186311721802
sg8
F0.00032275851413771783
ssS'abseta:[2.1,2.4]'
p831
(dp832
g7
F1.0118587017059326
sg8
F0.0005643645377044675
ssS'abseta:[0.9,1.2]'
p833
(dp834
g7
F0.9771272540092468
sg8
F0.023046392415914087
sssS'pt:[60.0,100.0]'
p835
(dp836
S'abseta:[0.0,0.9]'
p837
(dp838
g7
F0.994735598564148
sg8
F0.9947356287456817
ssS'abseta:[1.2,2.1]'
p839
(dp840
g7
F1.0003353357315063
sg8
F0.00043958340322670014
ssS'abseta:[2.1,2.4]'
p841
(dp842
g7
F1.0017679929733276
sg8
F0.0007832092541295853
ssS'abseta:[0.9,1.2]'
p843
(dp844
g7
F0.9953487515449524
sg8
F0.9953488425191388
sssS'pt:[20.0,25.0]'
p845
(dp846
S'abseta:[0.0,0.9]'
p847
(dp848
g7
F0.9364267587661743
sg8
F0.009880919174705597
ssS'abseta:[1.2,2.1]'
p849
(dp850
g7
F1.0132176876068115
sg8
F0.0015121352078361862
ssS'abseta:[2.1,2.4]'
p851
(dp852
g7
F1.0220825672149658
sg8
F0.0030364173756223657
ssS'abseta:[0.9,1.2]'
p853
(dp854
g7
F0.9446940422058105
sg8
F0.010051612409224224
sssS'pt:[40.0,50.0]'
p855
(dp856
S'abseta:[0.0,0.9]'
p857
(dp858
g7
F0.9901618957519531
sg8
F0.11242148041702602
ssS'abseta:[1.2,2.1]'
p859
(dp860
g7
F1.0018454790115356
sg8
F0.00017315860999016615
ssS'abseta:[2.1,2.4]'
p861
(dp862
g7
F1.0036227703094482
sg8
F0.00033140497389022155
ssS'abseta:[0.9,1.2]'
p863
(dp864
g7
F0.9913323521614075
sg8
F0.112554477629863
sssS'pt:[50.0,60.0]'
p865
(dp866
S'abseta:[0.0,0.9]'
p867
(dp868
g7
F0.9936366081237793
sg8
Fnan
ssS'abseta:[1.2,2.1]'
p869
(dp870
g7
F1.0003939867019653
sg8
F0.0003175484566789183
ssS'abseta:[2.1,2.4]'
p871
(dp872
g7
F1.001938819885254
sg8
F0.0005459662429163708
ssS'abseta:[0.9,1.2]'
p873
(dp874
g7
F0.994192361831665
sg8
Fnan
ssssS'abseta_pt_ratio'
p875
(dp876
S'abseta:[0.0,0.9]'
p877
(dp878
S'pt:[100.0,200.0]'
p879
(dp880
g7
F1.0014727115631104
sg8
F0.00103973329457381
ssS'pt:[25.0,30.0]'
p881
(dp882
g7
F0.9979936480522156
sg8
F0.0009209215469172685
ssS'pt:[30.0,40.0]'
p883
(dp884
g7
F0.9985569715499878
sg8
F0.00030430508660082346
ssS'pt:[60.0,100.0]'
p885
(dp886
g7
F0.9994109272956848
sg8
F0.0004143247303503205
ssS'pt:[20.0,25.0]'
p887
(dp888
g7
F0.9926884174346924
sg8
F0.0017489228278209632
ssS'pt:[40.0,50.0]'
p889
(dp890
g7
F0.9990392327308655
sg8
F0.0001675586849876149
ssS'pt:[50.0,60.0]'
p891
(dp892
g7
F0.9993119239807129
sg8
F0.0002996790287110044
sssS'abseta:[1.2,2.1]'
p893
(dp894
S'pt:[100.0,200.0]'
p895
(dp896
g7
F0.9984903335571289
sg8
F0.0009602561385589037
ssS'pt:[25.0,30.0]'
p897
(dp898
g7
F1.0000534057617188
sg8
F0.0008571726879698105
ssS'pt:[30.0,40.0]'
p899
(dp900
g7
F1.0005099773406982
sg8
F0.0003529396975036424
ssS'pt:[60.0,100.0]'
p901
(dp902
g7
F0.9995086193084717
sg8
F0.00047116519205443904
ssS'pt:[20.0,25.0]'
p903
(dp904
g7
F0.9968018531799316
sg8
F0.0013427232369547252
ssS'pt:[40.0,50.0]'
p905
(dp906
g7
F1.0003681182861328
sg8
F0.00017319077593635866
ssS'pt:[50.0,60.0]'
p907
(dp908
g7
F0.9989138245582581
sg8
F0.00031631424088297795
sssS'abseta:[2.1,2.4]'
p909
(dp910
S'pt:[100.0,200.0]'
p911
(dp912
g7
F1.001346468925476
sg8
F0.0025980986554006314
ssS'pt:[25.0,30.0]'
p913
(dp914
g7
F1.0032621622085571
sg8
F0.0013715987447998374
ssS'pt:[30.0,40.0]'
p915
(dp916
g7
F1.0013381242752075
sg8
F0.0005608603567853022
ssS'pt:[60.0,100.0]'
p917
(dp918
g7
F1.0008518695831299
sg8
F0.0010607653734839738
ssS'pt:[20.0,25.0]'
p919
(dp920
g7
F1.0011106729507446
sg8
F0.0028943942027126707
ssS'pt:[40.0,50.0]'
p921
(dp922
g7
F1.000162124633789
sg8
F0.0003575875658479216
ssS'pt:[50.0,60.0]'
p923
(dp924
g7
F0.9996540546417236
sg8
F0.0005506024762106935
sssS'abseta:[0.9,1.2]'
p925
(dp926
S'pt:[100.0,200.0]'
p927
(dp928
g7
F0.9986807703971863
sg8
F0.0020999866164614365
ssS'pt:[25.0,30.0]'
p929
(dp930
g7
F0.9997369647026062
sg8
F0.0016330487113067104
ssS'pt:[30.0,40.0]'
p931
(dp932
g7
F1.0000309944152832
sg8
F0.0005975758798092596
ssS'pt:[60.0,100.0]'
p933
(dp934
g7
F0.999249279499054
sg8
F0.0007182969720519852
ssS'pt:[20.0,25.0]'
p935
(dp936
g7
F0.9944974780082703
sg8
F0.002670989275344054
ssS'pt:[40.0,50.0]'
p937
(dp938
g7
F0.9996921420097351
sg8
F0.00029799094396674406
ssS'pt:[50.0,60.0]'
p939
(dp940
g7
F0.9996563792228699
sg8
F0.0005289596759080036
sssss.