(dp0
S'MC_NUM_LooseID_DEN_genTracks_PAR_pt_vtx'
p1
(dp2
S'tag_nVertices_ratio'
p3
(dp4
S'tag:[22.5,24.5]'
p5
(dp6
S'value'
p7
F0.9949595928192139
sS'error'
p8
F0.0013382093012915552
ssS'tag:[8.5,10.5]'
p9
(dp10
g7
F0.9976729154586792
sg8
F0.0002556598763452991
ssS'tag:[24.5,26.5]'
p11
(dp12
g7
F0.9957455992698669
sg8
F0.00221462153174938
ssS'tag:[26.5,28.5]'
p13
(dp14
g7
F0.9929025173187256
sg8
F0.0037986923296898342
ssS'tag:[16.5,18.5]'
p15
(dp16
g7
F0.9965516924858093
sg8
F0.0004266963441189668
ssS'tag:[6.5,8.5]'
p17
(dp18
g7
F0.9978154897689819
sg8
F0.00030794772381298355
ssS'tag:[18.5,20.5]'
p19
(dp20
g7
F0.9962685108184814
sg8
F0.0005893467613864323
ssS'tag:[10.5,12.5]'
p21
(dp22
g7
F0.9975714087486267
sg8
F0.00024930233395840956
ssS'tag:[14.5,16.5]'
p23
(dp24
g7
F0.9973883032798767
sg8
F0.0003280222778705615
ssS'tag:[2.5,4.5]'
p25
(dp26
g7
F0.9997738599777222
sg8
F0.0009179139830599553
ssS'tag:[28.5,30.5]'
p27
(dp28
g7
F1.0013389587402344
sg8
F0.004133761690304616
ssS'tag:[20.5,22.5]'
p29
(dp30
g7
F0.9980241656303406
sg8
F0.0008550518321753484
ssS'tag:[0.5,2.5]'
p31
(dp32
g7
F1.0007050037384033
sg8
F0.002353806478737489
ssS'tag:[12.5,14.5]'
p33
(dp34
g7
F0.9971556067466736
sg8
F0.00027066174804552277
ssS'tag:[4.5,6.5]'
p35
(dp36
g7
F0.9978033304214478
sg8
F0.0004578817430767749
ssssS'MC_NUM_LooseID_DEN_genTracks_PAR_eta'
p37
(dp38
S'eta_ratio'
p39
(dp40
S'eta:[-0.2,0.2]'
p41
(dp42
g7
F0.9983177781105042
sg8
F0.00034738689761947965
ssS'eta:[-2.4,-2.1]'
p43
(dp44
g7
F0.9936191439628601
sg8
F0.0007126942758991788
ssS'eta:[0.3,0.9]'
p45
(dp46
g7
F0.9980796575546265
sg8
F0.0002874979851902601
ssS'eta:[-0.9,-0.3]'
p47
(dp48
g7
F0.9980388283729553
sg8
F0.00028835023971467307
ssS'eta:[0.2,0.3]'
p49
(dp50
g7
F0.9874023795127869
sg8
F0.0008421394067212586
ssS'eta:[0.9,1.2]'
p51
(dp52
g7
F0.994874894618988
sg8
F0.0004524858806925992
ssS'eta:[-1.2,-0.9]'
p53
(dp54
g7
F0.9962295293807983
sg8
F0.00041533749609297974
ssS'eta:[2.1,2.4]'
p55
(dp56
g7
F0.9963400363922119
sg8
F0.0007057436022442947
ssS'eta:[-1.6,-1.2]'
p57
(dp58
g7
F0.9991943836212158
sg8
F0.00039531378567482316
ssS'eta:[1.2,1.6]'
p59
(dp60
g7
F0.997928261756897
sg8
F0.0006147091986853212
ssS'eta:[-2.1,-1.6]'
p61
(dp62
g7
F0.9972736239433289
sg8
F0.0003292937711300676
ssS'eta:[-0.3,-0.2]'
p63
(dp64
g7
F0.9918443560600281
sg8
F0.000796413817546055
ssS'eta:[1.6,2.1]'
p65
(dp66
g7
F0.9978113174438477
sg8
F0.00041123150317057554
ssssS'MC_NUM_LooseID_DEN_genTracks_PAR_pt_alleta_bin1'
p67
(dp68
S'pt_ratio'
p69
(dp70
S'pt:[100.0,200.0]'
p71
(dp72
g7
F1.001173973083496
sg8
F0.003643131625067076
ssS'pt:[25.0,30.0]'
p73
(dp74
g7
F0.9970897436141968
sg8
F0.0005684341066249334
ssS'pt:[30.0,40.0]'
p75
(dp76
g7
F0.9977056384086609
sg8
F0.0001788027918219422
ssS'pt:[60.0,100.0]'
p77
(dp78
g7
F0.992676317691803
sg8
F0.0012172329968005173
ssS'pt:[20.0,25.0]'
p79
(dp80
g7
F1.0009695291519165
sg8
F0.0012081907651216631
ssS'pt:[40.0,50.0]'
p81
(dp82
g7
F0.9970241785049438
sg8
F4.0055188484282654e-05
ssS'pt:[50.0,60.0]'
p83
(dp84
g7
F0.9951267838478088
sg8
F0.0004493273043706605
ssssS'MC_NUM_TightIDandIPCut_DEN_genTracks_PAR_vtx'
p85
(dp86
S'tag_nVertices_ratio'
p87
(dp88
S'tag:[22.5,24.5]'
p89
(dp90
g7
F0.9707489609718323
sg8
F0.0016975822673349816
ssS'tag:[8.5,10.5]'
p91
(dp92
g7
F0.9835188984870911
sg8
F0.00042739376879020205
ssS'tag:[24.5,26.5]'
p93
(dp94
g7
F0.9705641865730286
sg8
F0.002747414086367449
ssS'tag:[26.5,28.5]'
p95
(dp96
g7
F0.9647876620292664
sg8
F0.0046897619102202175
ssS'tag:[16.5,18.5]'
p97
(dp98
g7
F0.9764463305473328
sg8
F0.000570852139451795
ssS'tag:[6.5,8.5]'
p99
(dp100
g7
F0.9849992990493774
sg8
F0.0005433650757336865
ssS'tag:[18.5,20.5]'
p101
(dp102
g7
F0.9748898148536682
sg8
F0.000769530054176381
ssS'tag:[10.5,12.5]'
p103
(dp104
g7
F0.9819461107254028
sg8
F0.00039074139135272806
ssS'tag:[14.5,16.5]'
p105
(dp106
g7
F0.9787106513977051
sg8
F0.00045670982718306767
ssS'tag:[2.5,4.5]'
p107
(dp108
g7
F0.984816312789917
sg8
F0.001760838646457127
ssS'tag:[28.5,30.5]'
p109
(dp110
g7
F0.9691328406333923
sg8
F0.008241224676541611
ssS'tag:[20.5,22.5]'
p111
(dp112
g7
F0.9755083322525024
sg8
F0.0011060820990677646
ssS'tag:[0.5,2.5]'
p113
(dp114
g7
F0.9868720769882202
sg8
F0.006488668327494593
ssS'tag:[12.5,14.5]'
p115
(dp116
g7
F0.9796274304389954
sg8
F0.00040094476804921036
ssS'tag:[4.5,6.5]'
p117
(dp118
g7
F0.9853742122650146
sg8
F0.0008443617424380827
ssssS'MC_NUM_MediumID_DEN_genTracks_PAR_pt_spliteta_bin1'
p119
(dp120
S'pt_abseta_ratio'
p121
(dp122
S'pt:[100.0,200.0]'
p123
(dp124
S'abseta:[0.0,0.9]'
p125
(dp126
g7
F0.9960118532180786
sg8
F0.015247008270309784
ssS'abseta:[1.2,2.1]'
p127
(dp128
g7
F1.0048009157180786
sg8
F0.007700225166568673
ssS'abseta:[2.1,2.4]'
p129
(dp130
g7
F0.9217662215232849
sg8
F0.07815010628120947
ssS'abseta:[0.9,1.2]'
p131
(dp132
g7
F1.0000001192092896
sg8
F0.009091307074186615
sssS'pt:[25.0,30.0]'
p133
(dp134
S'abseta:[0.0,0.9]'
p135
(dp136
g7
F0.9853898286819458
sg8
F0.001009707286125818
ssS'abseta:[1.2,2.1]'
p137
(dp138
g7
F0.9947487711906433
sg8
F0.0009730267736080267
ssS'abseta:[2.1,2.4]'
p139
(dp140
g7
F0.9723908305168152
sg8
F0.0020027328907273583
ssS'abseta:[0.9,1.2]'
p141
(dp142
g7
F0.9863725304603577
sg8
F0.0016905670215332856
sssS'pt:[30.0,40.0]'
p143
(dp144
S'abseta:[0.0,0.9]'
p145
(dp146
g7
F0.9905641078948975
sg8
F0.00032025954678349444
ssS'abseta:[1.2,2.1]'
p147
(dp148
g7
F0.994625985622406
sg8
F0.00036610945537912784
ssS'abseta:[2.1,2.4]'
p149
(dp150
g7
F0.9712973833084106
sg8
F0.0009490172613230276
ssS'abseta:[0.9,1.2]'
p151
(dp152
g7
F0.9911298751831055
sg8
F0.0005769614418716282
sssS'pt:[60.0,100.0]'
p153
(dp154
S'abseta:[0.0,0.9]'
p155
(dp156
g7
F0.9869442582130432
sg8
F0.0017502307234299555
ssS'abseta:[1.2,2.1]'
p157
(dp158
g7
F0.9900534749031067
sg8
F0.00248958672958768
ssS'abseta:[2.1,2.4]'
p159
(dp160
g7
F0.9601155519485474
sg8
F0.007030499906809284
ssS'abseta:[0.9,1.2]'
p161
(dp162
g7
F0.9875638484954834
sg8
F0.0030481880819134832
sssS'pt:[20.0,25.0]'
p163
(dp164
S'abseta:[0.0,0.9]'
p165
(dp166
g7
F0.9718906283378601
sg8
F0.0022947052628751177
ssS'abseta:[1.2,2.1]'
p167
(dp168
g7
F0.9958906769752502
sg8
F0.0018439818802977411
ssS'abseta:[2.1,2.4]'
p169
(dp170
g7
F0.9809391498565674
sg8
F0.003397814274574077
ssS'abseta:[0.9,1.2]'
p171
(dp172
g7
F0.9886665344238281
sg8
F0.0034033099582726424
sssS'pt:[40.0,50.0]'
p173
(dp174
S'abseta:[0.0,0.9]'
p175
(dp176
g7
F0.9909558296203613
sg8
F0.00013938693435264305
ssS'abseta:[1.2,2.1]'
p177
(dp178
g7
F0.9941824078559875
sg8
F0.0002561923722691651
ssS'abseta:[2.1,2.4]'
p179
(dp180
g7
F0.9685906767845154
sg8
F0.00043010850931640953
ssS'abseta:[0.9,1.2]'
p181
(dp182
g7
F0.9905430674552917
sg8
F0.00039545639227855396
sssS'pt:[50.0,60.0]'
p183
(dp184
S'abseta:[0.0,0.9]'
p185
(dp186
g7
F0.9878788590431213
sg8
F0.0006621654430185004
ssS'abseta:[1.2,2.1]'
p187
(dp188
g7
F0.9942335486412048
sg8
F0.001025958507041962
ssS'abseta:[2.1,2.4]'
p189
(dp190
g7
F0.9756892323493958
sg8
F0.004733102038463179
ssS'abseta:[0.9,1.2]'
p191
(dp192
g7
F0.9908379316329956
sg8
F0.0012510247406670935
ssssS'abseta_pt_ratio'
p193
(dp194
S'abseta:[0.0,0.9]'
p195
(dp196
S'pt:[100.0,200.0]'
p197
(dp198
g7
F0.9960118532180786
sg8
F0.015247008270309784
ssS'pt:[25.0,30.0]'
p199
(dp200
g7
F0.9853898286819458
sg8
F0.001009707286125818
ssS'pt:[30.0,40.0]'
p201
(dp202
g7
F0.9905641078948975
sg8
F0.00032025954678349444
ssS'pt:[60.0,100.0]'
p203
(dp204
g7
F0.9869442582130432
sg8
F0.0017502307234299555
ssS'pt:[20.0,25.0]'
p205
(dp206
g7
F0.9718906283378601
sg8
F0.0022947052628751177
ssS'pt:[40.0,50.0]'
p207
(dp208
g7
F0.9909558296203613
sg8
F0.00013938693435264305
ssS'pt:[50.0,60.0]'
p209
(dp210
g7
F0.9878788590431213
sg8
F0.0006621654430185004
sssS'abseta:[1.2,2.1]'
p211
(dp212
S'pt:[100.0,200.0]'
p213
(dp214
g7
F1.0048009157180786
sg8
F0.007700225166568673
ssS'pt:[25.0,30.0]'
p215
(dp216
g7
F0.9947487711906433
sg8
F0.0009730267736080267
ssS'pt:[30.0,40.0]'
p217
(dp218
g7
F0.994625985622406
sg8
F0.00036610945537912784
ssS'pt:[60.0,100.0]'
p219
(dp220
g7
F0.9900534749031067
sg8
F0.00248958672958768
ssS'pt:[20.0,25.0]'
p221
(dp222
g7
F0.9958906769752502
sg8
F0.0018439818802977411
ssS'pt:[40.0,50.0]'
p223
(dp224
g7
F0.9941824078559875
sg8
F0.0002561923722691651
ssS'pt:[50.0,60.0]'
p225
(dp226
g7
F0.9942335486412048
sg8
F0.001025958507041962
sssS'abseta:[2.1,2.4]'
p227
(dp228
S'pt:[100.0,200.0]'
p229
(dp230
g7
F0.9217662215232849
sg8
F0.07815010628120947
ssS'pt:[25.0,30.0]'
p231
(dp232
g7
F0.9723908305168152
sg8
F0.0020027328907273583
ssS'pt:[30.0,40.0]'
p233
(dp234
g7
F0.9712973833084106
sg8
F0.0009490172613230276
ssS'pt:[60.0,100.0]'
p235
(dp236
g7
F0.9601155519485474
sg8
F0.007030499906809284
ssS'pt:[20.0,25.0]'
p237
(dp238
g7
F0.9809391498565674
sg8
F0.003397814274574077
ssS'pt:[40.0,50.0]'
p239
(dp240
g7
F0.9685906767845154
sg8
F0.00043010850931640953
ssS'pt:[50.0,60.0]'
p241
(dp242
g7
F0.9756892323493958
sg8
F0.004733102038463179
sssS'abseta:[0.9,1.2]'
p243
(dp244
S'pt:[100.0,200.0]'
p245
(dp246
g7
F1.0000001192092896
sg8
F0.009091307074186615
ssS'pt:[25.0,30.0]'
p247
(dp248
g7
F0.9863725304603577
sg8
F0.0016905670215332856
ssS'pt:[30.0,40.0]'
p249
(dp250
g7
F0.9911298751831055
sg8
F0.0005769614418716282
ssS'pt:[60.0,100.0]'
p251
(dp252
g7
F0.9875638484954834
sg8
F0.0030481880819134832
ssS'pt:[20.0,25.0]'
p253
(dp254
g7
F0.9886665344238281
sg8
F0.0034033099582726424
ssS'pt:[40.0,50.0]'
p255
(dp256
g7
F0.9905430674552917
sg8
F0.00039545639227855396
ssS'pt:[50.0,60.0]'
p257
(dp258
g7
F0.9908379316329956
sg8
F0.0012510247406670935
sssssS'MC_NUM_HighPtIDPt20andIPCut_DEN_genTracks_PAR_eta'
p259
(dp260
S'eta_ratio'
p261
(dp262
S'eta:[-0.2,0.2]'
p263
(dp264
g7
F0.9794908761978149
sg8
F0.0005176421188530839
ssS'eta:[-2.4,-2.1]'
p265
(dp266
g7
F0.9694327116012573
sg8
F0.0009534213470857917
ssS'eta:[0.3,0.9]'
p267
(dp268
g7
F0.9836084246635437
sg8
F0.0004025151641762911
ssS'eta:[-0.9,-0.3]'
p269
(dp270
g7
F0.9801155924797058
sg8
F0.0004080375608393265
ssS'eta:[0.2,0.3]'
p271
(dp272
g7
F0.9556957483291626
sg8
F0.0017695343465151015
ssS'eta:[0.9,1.2]'
p273
(dp274
g7
F0.9739533066749573
sg8
F0.0006340899490000114
ssS'eta:[-1.2,-0.9]'
p275
(dp276
g7
F0.9736442565917969
sg8
F0.0006100293472922786
ssS'eta:[2.1,2.4]'
p277
(dp278
g7
F0.9720043540000916
sg8
F0.0009341921921446614
ssS'eta:[-1.6,-1.2]'
p279
(dp280
g7
F0.9936321377754211
sg8
F0.0004632852483451418
ssS'eta:[1.2,1.6]'
p281
(dp282
g7
F0.9915688633918762
sg8
F0.0006681910976974083
ssS'eta:[-2.1,-1.6]'
p283
(dp284
g7
F0.9835728406906128
sg8
F0.00044784454771131264
ssS'eta:[-0.3,-0.2]'
p285
(dp286
g7
F0.9619840383529663
sg8
F0.0017090793928746311
ssS'eta:[1.6,2.1]'
p287
(dp288
g7
F0.9870720505714417
sg8
F0.0005003588577765406
ssssS'MC_NUM_HighPtIDPt20andIPCut_DEN_genTracks_PAR_eta_hpt'
p289
(dp290
S'eta_ratio'
p291
(dp292
S'eta:[-0.2,0.2]'
p293
(dp294
g7
F0.9589183330535889
sg8
F0.002642791515624334
ssS'eta:[-2.4,-2.1]'
p295
(dp296
g7
F0.9393197298049927
sg8
F0.0059299596792728795
ssS'eta:[0.3,0.9]'
p297
(dp298
g7
F0.9575748443603516
sg8
F0.002061000493313979
ssS'eta:[-0.9,-0.3]'
p299
(dp300
g7
F0.9611489772796631
sg8
F0.0020693113399726064
ssS'eta:[0.2,0.3]'
p301
(dp302
g7
F0.9261020421981812
sg8
F0.007507389403488035
ssS'eta:[0.9,1.2]'
p303
(dp304
g7
F0.9529079794883728
sg8
F0.0031888098550833825
ssS'eta:[-1.2,-0.9]'
p305
(dp306
g7
F0.9602897763252258
sg8
F0.002857729959261871
ssS'eta:[2.1,2.4]'
p307
(dp308
g7
F0.9380738735198975
sg8
F0.005882385964960082
ssS'eta:[-1.6,-1.2]'
p309
(dp310
g7
F0.9777403473854065
sg8
F0.00250926624172587
ssS'eta:[1.2,1.6]'
p311
(dp312
g7
F0.939689040184021
sg8
F0.0040619669372073215
ssS'eta:[-2.1,-1.6]'
p313
(dp314
g7
F0.9758327007293701
sg8
F0.0023170210045458956
ssS'eta:[-0.3,-0.2]'
p315
(dp316
g7
F0.9377899169921875
sg8
F0.007356750373091161
ssS'eta:[1.6,2.1]'
p317
(dp318
g7
F0.9678210616111755
sg8
F0.002925313943027646
ssssS'MC_NUM_MediumID_DEN_genTracks_PAR_eta'
p319
(dp320
S'eta_ratio'
p321
(dp322
S'eta:[-0.2,0.2]'
p323
(dp324
g7
F0.9906436800956726
sg8
F0.0004256357879820055
ssS'eta:[-2.4,-2.1]'
p325
(dp326
g7
F0.9681466221809387
sg8
F0.0008968834139805585
ssS'eta:[0.3,0.9]'
p327
(dp328
g7
F0.9945269227027893
sg8
F0.00032045721369595927
ssS'eta:[-0.9,-0.3]'
p329
(dp330
g7
F0.9924780130386353
sg8
F0.0003248641226582832
ssS'eta:[0.2,0.3]'
p331
(dp332
g7
F0.981265127658844
sg8
F0.001020634081701965
ssS'eta:[0.9,1.2]'
p333
(dp334
g7
F0.989993691444397
sg8
F0.0005060017240925641
ssS'eta:[-1.2,-0.9]'
p335
(dp336
g7
F0.9907807111740112
sg8
F0.0004722843905867198
ssS'eta:[2.1,2.4]'
p337
(dp338
g7
F0.9726853966712952
sg8
F0.0008797099840122841
ssS'eta:[-1.6,-1.2]'
p339
(dp340
g7
F0.9968504309654236
sg8
F0.00042688695633997267
ssS'eta:[1.2,1.6]'
p341
(dp342
g7
F0.9949619770050049
sg8
F0.0006448422996954639
ssS'eta:[-2.1,-1.6]'
p343
(dp344
g7
F0.989485502243042
sg8
F0.0003774977593315281
ssS'eta:[-0.3,-0.2]'
p345
(dp346
g7
F0.97934889793396
sg8
F0.0009977072258782963
ssS'eta:[1.6,2.1]'
p347
(dp348
g7
F0.9929956793785095
sg8
F0.00043761325483690456
ssssS'MC_NUM_MediumID_DEN_genTracks_PAR_pt_alleta_bin1'
p349
(dp350
S'pt_ratio'
p351
(dp352
S'pt:[100.0,200.0]'
p353
(dp354
g7
F1.0058083534240723
sg8
F0.005155943632478165
ssS'pt:[25.0,30.0]'
p355
(dp356
g7
F0.9900705218315125
sg8
F0.0006173802576253839
ssS'pt:[30.0,40.0]'
p357
(dp358
g7
F0.9910219311714172
sg8
F0.0002186397703697717
ssS'pt:[60.0,100.0]'
p359
(dp360
g7
F0.9874369502067566
sg8
F0.0012919817904461191
ssS'pt:[20.0,25.0]'
p361
(dp362
g7
F0.993819534778595
sg8
F0.001255877374349543
ssS'pt:[40.0,50.0]'
p363
(dp364
g7
F0.9908052086830139
sg8
F0.00015827771061285663
ssS'pt:[50.0,60.0]'
p365
(dp366
g7
F0.9900569915771484
sg8
F0.0005222270170231337
ssssS'MC_NUM_HighPtIDPt20andIPCut_DEN_genTracks_PAR_vtx'
p367
(dp368
S'tag_nVertices_ratio'
p369
(dp370
S'tag:[22.5,24.5]'
p371
(dp372
g7
F0.9722842574119568
sg8
F0.0016016097199074628
ssS'tag:[8.5,10.5]'
p373
(dp374
g7
F0.9840382933616638
sg8
F0.0004099795919474031
ssS'tag:[24.5,26.5]'
p375
(dp376
g7
F0.9712076187133789
sg8
F0.00257270141199108
ssS'tag:[26.5,28.5]'
p377
(dp378
g7
F0.9668651223182678
sg8
F0.004330732687321719
ssS'tag:[16.5,18.5]'
p379
(dp380
g7
F0.9771344065666199
sg8
F0.0005518198608666782
ssS'tag:[6.5,8.5]'
p381
(dp382
g7
F0.9853528141975403
sg8
F0.0005195747335041101
ssS'tag:[18.5,20.5]'
p383
(dp384
g7
F0.9753570556640625
sg8
F0.0007414140205050161
ssS'tag:[10.5,12.5]'
p385
(dp386
g7
F0.9826493859291077
sg8
F0.00037653996253365245
ssS'tag:[14.5,16.5]'
p387
(dp388
g7
F0.9795306324958801
sg8
F0.00044173938825158964
ssS'tag:[2.5,4.5]'
p389
(dp390
g7
F0.985594630241394
sg8
F0.0016679671953081028
ssS'tag:[28.5,30.5]'
p391
(dp392
g7
F0.9735596776008606
sg8
F0.007554415179891284
ssS'tag:[20.5,22.5]'
p393
(dp394
g7
F0.9753303527832031
sg8
F0.001056353641270361
ssS'tag:[0.5,2.5]'
p395
(dp396
g7
F0.986629068851471
sg8
F0.006418631319071799
ssS'tag:[12.5,14.5]'
p397
(dp398
g7
F0.9804748892784119
sg8
F0.0003873505422736526
ssS'tag:[4.5,6.5]'
p399
(dp400
g7
F0.9863587617874146
sg8
F0.0008107346380329934
ssssS'MC_NUM_TightIDandIPCut_DEN_genTracks_PAR_eta'
p401
(dp402
S'eta_ratio'
p403
(dp404
S'eta:[-0.2,0.2]'
p405
(dp406
g7
F0.9781268239021301
sg8
F0.000526319029191717
ssS'eta:[-2.4,-2.1]'
p407
(dp408
g7
F0.9726623296737671
sg8
F0.001020228652450308
ssS'eta:[0.3,0.9]'
p409
(dp410
g7
F0.982197105884552
sg8
F0.00041192941372759125
ssS'eta:[-0.9,-0.3]'
p411
(dp412
g7
F0.9787912964820862
sg8
F0.00041725411797085074
ssS'eta:[0.2,0.3]'
p413
(dp414
g7
F0.9532307982444763
sg8
F0.001798222022210252
ssS'eta:[0.9,1.2]'
p415
(dp416
g7
F0.9713202118873596
sg8
F0.0006600412133575989
ssS'eta:[-1.2,-0.9]'
p417
(dp418
g7
F0.9710766077041626
sg8
F0.0006364048682870984
ssS'eta:[2.1,2.4]'
p419
(dp420
g7
F0.9740936756134033
sg8
F0.0009924359038551275
ssS'eta:[-1.6,-1.2]'
p421
(dp422
g7
F0.9933997392654419
sg8
F0.0004764023310117213
ssS'eta:[1.2,1.6]'
p423
(dp424
g7
F0.9913802742958069
sg8
F0.0006741932722182655
ssS'eta:[-2.1,-1.6]'
p425
(dp426
g7
F0.9850609302520752
sg8
F0.00048742995072671746
ssS'eta:[-0.3,-0.2]'
p427
(dp428
g7
F0.9599630832672119
sg8
F0.0017387467205575604
ssS'eta:[1.6,2.1]'
p429
(dp430
g7
F0.9892056584358215
sg8
F0.0005337728535726065
ssssS'MC_NUM_HighPtIDPt20andIPCut_DEN_genTracks_PAR_pt_alleta_bin1'
p431
(dp432
S'pair_ne_ratio'
p433
(dp434
S'pair:[55.0,60.0]'
p435
(dp436
g7
F0.9800111651420593
sg8
F0.0012494468760582017
ssS'pair:[25.0,30.0]'
p437
(dp438
g7
F0.9816568493843079
sg8
F0.0007251677477947465
ssS'pair:[30.0,40.0]'
p439
(dp440
g7
F0.9809949994087219
sg8
F0.00029086876372753847
ssS'pair:[50.0,55.0]'
p441
(dp442
g7
F0.9795050621032715
sg8
F0.0007364968630400816
ssS'pair:[40.0,50.0]'
p443
(dp444
g7
F0.9801563620567322
sg8
F0.0002308498106081721
ssS'pair:[100.0,200.0]'
p445
(dp446
g7
F1.0099304914474487
sg8
F0.012533119742814283
ssS'pair:[60.0,100.0]'
p447
(dp448
g7
F0.9788055419921875
sg8
F0.001403620014615722
ssS'pair:[20.0,25.0]'
p449
(dp450
g7
F0.9871827960014343
sg8
F0.0013531208061399514
ssssS'MC_NUM_MediumID_DEN_genTracks_PAR_pt_vtx'
p451
(dp452
S'tag_nVertices_ratio'
p453
(dp454
S'tag:[22.5,24.5]'
p455
(dp456
g7
F0.9853315353393555
sg8
F0.0014284635751902572
ssS'tag:[8.5,10.5]'
p457
(dp458
g7
F0.992644727230072
sg8
F0.0003122758559493325
ssS'tag:[24.5,26.5]'
p459
(dp460
g7
F0.9858201146125793
sg8
F0.002305413826254258
ssS'tag:[26.5,28.5]'
p461
(dp462
g7
F0.982079803943634
sg8
F0.003946187704839171
ssS'tag:[16.5,18.5]'
p463
(dp464
g7
F0.988813042640686
sg8
F0.0004656746189616056
ssS'tag:[6.5,8.5]'
p465
(dp466
g7
F0.9928830862045288
sg8
F0.000386550895320515
ssS'tag:[18.5,20.5]'
p467
(dp468
g7
F0.9880242347717285
sg8
F0.0006367368065449369
ssS'tag:[10.5,12.5]'
p469
(dp470
g7
F0.9920767545700073
sg8
F0.0002951192297938803
ssS'tag:[14.5,16.5]'
p471
(dp472
g7
F0.9905577301979065
sg8
F0.0003640426388951544
ssS'tag:[2.5,4.5]'
p473
(dp474
g7
F0.9945444464683533
sg8
F0.001196365274259767
ssS'tag:[28.5,30.5]'
p475
(dp476
g7
F0.9935348033905029
sg8
F0.006939898231120797
ssS'tag:[20.5,22.5]'
p477
(dp478
g7
F0.9895623326301575
sg8
F0.0009330132948149558
ssS'tag:[0.5,2.5]'
p479
(dp480
g7
F0.9957873225212097
sg8
F0.003767286857080082
ssS'tag:[12.5,14.5]'
p481
(dp482
g7
F0.9908434152603149
sg8
F0.00031264675243753136
ssS'tag:[4.5,6.5]'
p483
(dp484
g7
F0.9931647181510925
sg8
F0.0005913945191819193
ssssS'MC_NUM_TightIDandIPCut_DEN_genTracks_PAR_pt_spliteta_bin1'
p485
(dp486
S'pt_abseta_ratio'
p487
(dp488
S'pt:[100.0,200.0]'
p489
(dp490
S'abseta:[0.0,0.9]'
p491
(dp492
g7
F0.9876396059989929
sg8
F0.016081900894956834
ssS'abseta:[1.2,2.1]'
p493
(dp494
g7
F1.0134860277175903
sg8
F0.009446019825591111
ssS'abseta:[2.1,2.4]'
p495
(dp496
g7
F0.9180797934532166
sg8
F0.0796353080212764
ssS'abseta:[0.9,1.2]'
p497
(dp498
g7
F1.0271403789520264
sg8
F0.022479274253431384
sssS'pt:[25.0,30.0]'
p499
(dp500
S'abseta:[0.0,0.9]'
p501
(dp502
g7
F0.9707626104354858
sg8
F0.0012650803491829764
ssS'abseta:[1.2,2.1]'
p503
(dp504
g7
F0.9896454215049744
sg8
F0.0010971445972837357
ssS'abseta:[2.1,2.4]'
p505
(dp506
g7
F0.9758532643318176
sg8
F0.0023006098823981844
ssS'abseta:[0.9,1.2]'
p507
(dp508
g7
F0.9668657183647156
sg8
F0.002066164609763586
sssS'pt:[30.0,40.0]'
p509
(dp510
S'abseta:[0.0,0.9]'
p511
(dp512
g7
F0.9758808016777039
sg8
F0.00048122679622329955
ssS'abseta:[1.2,2.1]'
p513
(dp514
g7
F0.9901984333992004
sg8
F0.0004501675999014156
ssS'abseta:[2.1,2.4]'
p515
(dp516
g7
F0.9739177823066711
sg8
F0.0011378340245009472
ssS'abseta:[0.9,1.2]'
p517
(dp518
g7
F0.9715731739997864
sg8
F0.0008301741468948756
sssS'pt:[60.0,100.0]'
p519
(dp520
S'abseta:[0.0,0.9]'
p521
(dp522
g7
F0.9735230803489685
sg8
F0.002016253584318149
ssS'abseta:[1.2,2.1]'
p523
(dp524
g7
F0.9897855520248413
sg8
F0.0026260862601276856
ssS'abseta:[2.1,2.4]'
p525
(dp526
g7
F0.9752183556556702
sg8
F0.007635125279475819
ssS'abseta:[0.9,1.2]'
p527
(dp528
g7
F0.9682161211967468
sg8
F0.003472084269821375
sssS'pt:[20.0,25.0]'
p529
(dp530
S'abseta:[0.0,0.9]'
p531
(dp532
g7
F0.9583764672279358
sg8
F0.002566847752776202
ssS'abseta:[1.2,2.1]'
p533
(dp534
g7
F0.991417646408081
sg8
F0.0019729186508532425
ssS'abseta:[2.1,2.4]'
p535
(dp536
g7
F0.9852938652038574
sg8
F0.0036838198826703115
ssS'abseta:[0.9,1.2]'
p537
(dp538
g7
F0.969183087348938
sg8
F0.0037575928515615744
sssS'pt:[40.0,50.0]'
p539
(dp540
S'abseta:[0.0,0.9]'
p541
(dp542
g7
F0.9761818051338196
sg8
F0.00038707854928462756
ssS'abseta:[1.2,2.1]'
p543
(dp544
g7
F0.9908475279808044
sg8
F0.00020012051672911908
ssS'abseta:[2.1,2.4]'
p545
(dp546
g7
F0.9698939323425293
sg8
F0.0010892410482249218
ssS'abseta:[0.9,1.2]'
p547
(dp548
g7
F0.970848560333252
sg8
F0.0006274644581366717
sssS'pt:[50.0,60.0]'
p549
(dp550
S'abseta:[0.0,0.9]'
p551
(dp552
g7
F0.9722656607627869
sg8
F0.0009999858698420338
ssS'abseta:[1.2,2.1]'
p553
(dp554
g7
F0.9915886521339417
sg8
F0.001150250187962349
ssS'abseta:[2.1,2.4]'
p555
(dp556
g7
F0.9810636639595032
sg8
F0.0035467397823980475
ssS'abseta:[0.9,1.2]'
p557
(dp558
g7
F0.9714972376823425
sg8
F0.0016762886542705689
ssssS'abseta_pt_ratio'
p559
(dp560
S'abseta:[0.0,0.9]'
p561
(dp562
S'pt:[100.0,200.0]'
p563
(dp564
g7
F0.9876396059989929
sg8
F0.016081900894956834
ssS'pt:[25.0,30.0]'
p565
(dp566
g7
F0.9707626104354858
sg8
F0.0012650803491829764
ssS'pt:[30.0,40.0]'
p567
(dp568
g7
F0.9758808016777039
sg8
F0.00048122679622329955
ssS'pt:[60.0,100.0]'
p569
(dp570
g7
F0.9735230803489685
sg8
F0.002016253584318149
ssS'pt:[20.0,25.0]'
p571
(dp572
g7
F0.9583764672279358
sg8
F0.002566847752776202
ssS'pt:[40.0,50.0]'
p573
(dp574
g7
F0.9761818051338196
sg8
F0.00038707854928462756
ssS'pt:[50.0,60.0]'
p575
(dp576
g7
F0.9722656607627869
sg8
F0.0009999858698420338
sssS'abseta:[1.2,2.1]'
p577
(dp578
S'pt:[100.0,200.0]'
p579
(dp580
g7
F1.0134860277175903
sg8
F0.009446019825591111
ssS'pt:[25.0,30.0]'
p581
(dp582
g7
F0.9896454215049744
sg8
F0.0010971445972837357
ssS'pt:[30.0,40.0]'
p583
(dp584
g7
F0.9901984333992004
sg8
F0.0004501675999014156
ssS'pt:[60.0,100.0]'
p585
(dp586
g7
F0.9897855520248413
sg8
F0.0026260862601276856
ssS'pt:[20.0,25.0]'
p587
(dp588
g7
F0.991417646408081
sg8
F0.0019729186508532425
ssS'pt:[40.0,50.0]'
p589
(dp590
g7
F0.9908475279808044
sg8
F0.00020012051672911908
ssS'pt:[50.0,60.0]'
p591
(dp592
g7
F0.9915886521339417
sg8
F0.001150250187962349
sssS'abseta:[2.1,2.4]'
p593
(dp594
S'pt:[100.0,200.0]'
p595
(dp596
g7
F0.9180797934532166
sg8
F0.0796353080212764
ssS'pt:[25.0,30.0]'
p597
(dp598
g7
F0.9758532643318176
sg8
F0.0023006098823981844
ssS'pt:[30.0,40.0]'
p599
(dp600
g7
F0.9739177823066711
sg8
F0.0011378340245009472
ssS'pt:[60.0,100.0]'
p601
(dp602
g7
F0.9752183556556702
sg8
F0.007635125279475819
ssS'pt:[20.0,25.0]'
p603
(dp604
g7
F0.9852938652038574
sg8
F0.0036838198826703115
ssS'pt:[40.0,50.0]'
p605
(dp606
g7
F0.9698939323425293
sg8
F0.0010892410482249218
ssS'pt:[50.0,60.0]'
p607
(dp608
g7
F0.9810636639595032
sg8
F0.0035467397823980475
sssS'abseta:[0.9,1.2]'
p609
(dp610
S'pt:[100.0,200.0]'
p611
(dp612
g7
F1.0271403789520264
sg8
F0.022479274253431384
ssS'pt:[25.0,30.0]'
p613
(dp614
g7
F0.9668657183647156
sg8
F0.002066164609763586
ssS'pt:[30.0,40.0]'
p615
(dp616
g7
F0.9715731739997864
sg8
F0.0008301741468948756
ssS'pt:[60.0,100.0]'
p617
(dp618
g7
F0.9682161211967468
sg8
F0.003472084269821375
ssS'pt:[20.0,25.0]'
p619
(dp620
g7
F0.969183087348938
sg8
F0.0037575928515615744
ssS'pt:[40.0,50.0]'
p621
(dp622
g7
F0.970848560333252
sg8
F0.0006274644581366717
ssS'pt:[50.0,60.0]'
p623
(dp624
g7
F0.9714972376823425
sg8
F0.0016762886542705689
sssssS'MC_NUM_HighPtIDPt20andIPCut_DEN_genTracks_PAR_pt_spliteta_bin1'
p625
(dp626
S'abseta_pair_ne_ratio'
p627
(dp628
S'abseta:[0.0,0.9]'
p629
(dp630
S'pair:[55.0,60.0]'
p631
(dp632
g7
F0.9758979082107544
sg8
F0.0015505519721752104
ssS'pair:[25.0,30.0]'
p633
(dp634
g7
F0.9724937677383423
sg8
F0.001256509197018905
ssS'pair:[30.0,40.0]'
p635
(dp636
g7
F0.977432370185852
sg8
F0.00047330107292791314
ssS'pair:[50.0,55.0]'
p637
(dp638
g7
F0.9747344255447388
sg8
F0.0010293916965292095
ssS'pair:[40.0,50.0]'
p639
(dp640
g7
F0.9784419536590576
sg8
F0.00026139906576741733
ssS'pair:[100.0,200.0]'
p641
(dp642
g7
F0.9862667322158813
sg8
F0.01603405992241845
ssS'pair:[60.0,100.0]'
p643
(dp644
g7
F0.9766048192977905
sg8
F0.0020011648651275006
ssS'pair:[20.0,25.0]'
p645
(dp646
g7
F0.9599856734275818
sg8
F0.002551577469953038
sssS'abseta:[1.2,2.1]'
p647
(dp648
S'pair:[55.0,60.0]'
p649
(dp650
g7
F0.9892826080322266
sg8
F0.00224781499314605
ssS'pair:[25.0,30.0]'
p651
(dp652
g7
F0.9898213744163513
sg8
F0.0010576586793976577
ssS'pair:[30.0,40.0]'
p653
(dp654
g7
F0.9898940920829773
sg8
F0.00042261978083707187
ssS'pair:[50.0,55.0]'
p655
(dp656
g7
F0.9896343350410461
sg8
F0.0011258336830625966
ssS'pair:[40.0,50.0]'
p657
(dp658
g7
F0.9898992776870728
sg8
F1.4703962088404347e-05
ssS'pair:[100.0,200.0]'
p659
(dp660
g7
F1.005719542503357
sg8
F0.008358020820458282
ssS'pair:[60.0,100.0]'
p661
(dp662
g7
F0.9881026148796082
sg8
F0.0025604965171705596
ssS'pair:[20.0,25.0]'
p663
(dp664
g7
F0.9914407134056091
sg8
F0.0019742972597926755
sssS'abseta:[2.1,2.4]'
p665
(dp666
S'pair:[55.0,60.0]'
p667
(dp668
g7
F0.9831600785255432
sg8
F0.006622552757941831
ssS'pair:[25.0,30.0]'
p669
(dp670
g7
F0.9737377762794495
sg8
F0.0021462302546421497
ssS'pair:[30.0,40.0]'
p671
(dp672
g7
F0.971311628818512
sg8
F0.0010375065447722307
ssS'pair:[50.0,55.0]'
p673
(dp674
g7
F0.9703149795532227
sg8
F0.0038169804970741056
ssS'pair:[40.0,50.0]'
p675
(dp676
g7
F0.9678099155426025
sg8
F0.0009841109485853787
ssS'pair:[100.0,200.0]'
p677
(dp678
g7
F0.9190207123756409
sg8
F0.07658277082434091
ssS'pair:[60.0,100.0]'
p679
(dp680
g7
F0.9708237051963806
sg8
F0.007390888298763579
ssS'pair:[20.0,25.0]'
p681
(dp682
g7
F0.985519528388977
sg8
F0.0035524158907135482
sssS'abseta:[0.9,1.2]'
p683
(dp684
S'pair:[55.0,60.0]'
p685
(dp686
g7
F0.9695276021957397
sg8
F0.0032399076890434995
ssS'pair:[25.0,30.0]'
p687
(dp688
g7
F0.9695202112197876
sg8
F0.0020154167376941127
ssS'pair:[30.0,40.0]'
p689
(dp690
g7
F0.9744324684143066
sg8
F0.0007970407693958543
ssS'pair:[50.0,55.0]'
p691
(dp692
g7
F0.9784128665924072
sg8
F0.0033564252847973213
ssS'pair:[40.0,50.0]'
p693
(dp694
g7
F0.9736101031303406
sg8
F0.000592914126000204
ssS'pair:[100.0,200.0]'
p695
(dp696
g7
F1.0140866041183472
sg8
F0.01601580190244811
ssS'pair:[60.0,100.0]'
p697
(dp698
g7
F0.971825361251831
sg8
F0.0033890442365614015
ssS'pair:[20.0,25.0]'
p699
(dp700
g7
F0.9720011949539185
sg8
F0.00369791032518319
ssssS'pair_ne_ratio'
p701
(dp702
S'pair:[55.0,60.0]'
p703
(dp704
S'ne:[2.1,2.4]'
p705
(dp706
g7
F0.9831600785255432
sg8
F0.006622552757941831
ssS'ne:[1.2,2.1]'
p707
(dp708
g7
F0.9892826080322266
sg8
F0.00224781499314605
ssS'ne:[0.0,0.9]'
p709
(dp710
g7
F0.9758979082107544
sg8
F0.0015505519721752104
ssS'ne:[0.9,1.2]'
p711
(dp712
g7
F0.9695276021957397
sg8
F0.0032399076890434995
sssS'pair:[25.0,30.0]'
p713
(dp714
S'ne:[2.1,2.4]'
p715
(dp716
g7
F0.9737377762794495
sg8
F0.0021462302546421497
ssS'ne:[1.2,2.1]'
p717
(dp718
g7
F0.9898213744163513
sg8
F0.0010576586793976577
ssS'ne:[0.0,0.9]'
p719
(dp720
g7
F0.9724937677383423
sg8
F0.001256509197018905
ssS'ne:[0.9,1.2]'
p721
(dp722
g7
F0.9695202112197876
sg8
F0.0020154167376941127
sssS'pair:[30.0,40.0]'
p723
(dp724
S'ne:[2.1,2.4]'
p725
(dp726
g7
F0.971311628818512
sg8
F0.0010375065447722307
ssS'ne:[1.2,2.1]'
p727
(dp728
g7
F0.9898940920829773
sg8
F0.00042261978083707187
ssS'ne:[0.0,0.9]'
p729
(dp730
g7
F0.977432370185852
sg8
F0.00047330107292791314
ssS'ne:[0.9,1.2]'
p731
(dp732
g7
F0.9744324684143066
sg8
F0.0007970407693958543
sssS'pair:[50.0,55.0]'
p733
(dp734
S'ne:[2.1,2.4]'
p735
(dp736
g7
F0.9703149795532227
sg8
F0.0038169804970741056
ssS'ne:[1.2,2.1]'
p737
(dp738
g7
F0.9896343350410461
sg8
F0.0011258336830625966
ssS'ne:[0.0,0.9]'
p739
(dp740
g7
F0.9747344255447388
sg8
F0.0010293916965292095
ssS'ne:[0.9,1.2]'
p741
(dp742
g7
F0.9784128665924072
sg8
F0.0033564252847973213
sssS'pair:[40.0,50.0]'
p743
(dp744
S'ne:[2.1,2.4]'
p745
(dp746
g7
F0.9678099155426025
sg8
F0.0009841109485853787
ssS'ne:[1.2,2.1]'
p747
(dp748
g7
F0.9898992776870728
sg8
F1.4703962088404347e-05
ssS'ne:[0.0,0.9]'
p749
(dp750
g7
F0.9784419536590576
sg8
F0.00026139906576741733
ssS'ne:[0.9,1.2]'
p751
(dp752
g7
F0.9736101031303406
sg8
F0.000592914126000204
sssS'pair:[100.0,200.0]'
p753
(dp754
S'ne:[2.1,2.4]'
p755
(dp756
g7
F0.9190207123756409
sg8
F0.07658277082434091
ssS'ne:[1.2,2.1]'
p757
(dp758
g7
F1.005719542503357
sg8
F0.008358020820458282
ssS'ne:[0.0,0.9]'
p759
(dp760
g7
F0.9862667322158813
sg8
F0.01603405992241845
ssS'ne:[0.9,1.2]'
p761
(dp762
g7
F1.0140866041183472
sg8
F0.01601580190244811
sssS'pair:[60.0,100.0]'
p763
(dp764
S'ne:[2.1,2.4]'
p765
(dp766
g7
F0.9708237051963806
sg8
F0.007390888298763579
ssS'ne:[1.2,2.1]'
p767
(dp768
g7
F0.9881026148796082
sg8
F0.0025604965171705596
ssS'ne:[0.0,0.9]'
p769
(dp770
g7
F0.9766048192977905
sg8
F0.0020011648651275006
ssS'ne:[0.9,1.2]'
p771
(dp772
g7
F0.971825361251831
sg8
F0.0033890442365614015
sssS'pair:[20.0,25.0]'
p773
(dp774
S'ne:[2.1,2.4]'
p775
(dp776
g7
F0.985519528388977
sg8
F0.0035524158907135482
ssS'ne:[1.2,2.1]'
p777
(dp778
g7
F0.9914407134056091
sg8
F0.0019742972597926755
ssS'ne:[0.0,0.9]'
p779
(dp780
g7
F0.9599856734275818
sg8
F0.002551577469953038
ssS'ne:[0.9,1.2]'
p781
(dp782
g7
F0.9720011949539185
sg8
F0.00369791032518319
sssssS'MC_NUM_LooseID_DEN_genTracks_PAR_pt_spliteta_bin1'
p783
(dp784
S'pt_abseta_ratio'
p785
(dp786
S'pt:[100.0,200.0]'
p787
(dp788
S'abseta:[0.0,0.9]'
p789
(dp790
g7
F1.000993013381958
sg8
F0.01499335458411095
ssS'abseta:[1.2,2.1]'
p791
(dp792
g7
F1.0035746097564697
sg8
F0.007436337264116035
ssS'abseta:[2.1,2.4]'
p793
(dp794
g7
F0.9524180889129639
sg8
F0.06868763774357031
ssS'abseta:[0.9,1.2]'
p795
(dp796
g7
F1.0
sg8
F0.006808103846250554
sssS'pt:[25.0,30.0]'
p797
(dp798
S'abseta:[0.0,0.9]'
p799
(dp800
g7
F0.9913785457611084
sg8
F0.0009234594377028761
ssS'abseta:[1.2,2.1]'
p801
(dp802
g7
F0.9990096092224121
sg8
F0.0009266221250899031
ssS'abseta:[2.1,2.4]'
p803
(dp804
g7
F0.9975222945213318
sg8
F0.001657076253713679
ssS'abseta:[0.9,1.2]'
p805
(dp806
g7
F0.9921380877494812
sg8
F0.0015650159099853725
sssS'pt:[30.0,40.0]'
p807
(dp808
S'abseta:[0.0,0.9]'
p809
(dp810
g7
F0.9967285394668579
sg8
F0.0002534904026351132
ssS'abseta:[1.2,2.1]'
p811
(dp812
g7
F0.9991196393966675
sg8
F0.00032943032170485614
ssS'abseta:[2.1,2.4]'
p813
(dp814
g7
F0.9951373934745789
sg8
F0.0006770573158253479
ssS'abseta:[0.9,1.2]'
p815
(dp816
g7
F0.9961410164833069
sg8
F0.0004818529277801386
sssS'pt:[60.0,100.0]'
p817
(dp818
S'abseta:[0.0,0.9]'
p819
(dp820
g7
F0.9916250705718994
sg8
F0.00165557515593005
ssS'abseta:[1.2,2.1]'
p821
(dp822
g7
F0.9941204190254211
sg8
F0.002450960426095423
ssS'abseta:[2.1,2.4]'
p823
(dp824
g7
F0.9828795194625854
sg8
F0.006668679648269225
ssS'abseta:[0.9,1.2]'
p825
(dp826
g7
F0.9919407963752747
sg8
F0.0028829998232956216
sssS'pt:[20.0,25.0]'
p827
(dp828
S'abseta:[0.0,0.9]'
p829
(dp830
g7
F0.9770912528038025
sg8
F0.002204800446174713
ssS'abseta:[1.2,2.1]'
p831
(dp832
g7
F1.0004689693450928
sg8
F0.0012799593905231616
ssS'abseta:[2.1,2.4]'
p833
(dp834
g7
F1.0025666952133179
sg8
F0.0008364301059790114
ssS'abseta:[0.9,1.2]'
p835
(dp836
g7
F0.9954992532730103
sg8
F0.00331620403779163
sssS'pt:[40.0,50.0]'
p837
(dp838
S'abseta:[0.0,0.9]'
p839
(dp840
g7
F0.9967360496520996
sg8
F0.00019352777544120412
ssS'abseta:[1.2,2.1]'
p841
(dp842
g7
F0.9984928965568542
sg8
F0.00021108543912756446
ssS'abseta:[2.1,2.4]'
p843
(dp844
g7
F0.994268536567688
sg8
F0.00018133694538615016
ssS'abseta:[0.9,1.2]'
p845
(dp846
g7
F0.9953615665435791
sg8
F0.0002955240185353429
sssS'pt:[50.0,60.0]'
p847
(dp848
S'abseta:[0.0,0.9]'
p849
(dp850
g7
F0.9927977919578552
sg8
F0.0006305245316480905
ssS'abseta:[1.2,2.1]'
p851
(dp852
g7
F0.9975550174713135
sg8
F0.0009462225785186047
ssS'abseta:[2.1,2.4]'
p853
(dp854
g7
F0.9986956119537354
sg8
F0.002594193786976947
ssS'abseta:[0.9,1.2]'
p855
(dp856
g7
F0.9962810277938843
sg8
F0.001891480140170813
ssssS'abseta_pt_ratio'
p857
(dp858
S'abseta:[0.0,0.9]'
p859
(dp860
S'pt:[100.0,200.0]'
p861
(dp862
g7
F1.000993013381958
sg8
F0.01499335458411095
ssS'pt:[25.0,30.0]'
p863
(dp864
g7
F0.9913785457611084
sg8
F0.0009234594377028761
ssS'pt:[30.0,40.0]'
p865
(dp866
g7
F0.9967285394668579
sg8
F0.0002534904026351132
ssS'pt:[60.0,100.0]'
p867
(dp868
g7
F0.9916250705718994
sg8
F0.00165557515593005
ssS'pt:[20.0,25.0]'
p869
(dp870
g7
F0.9770912528038025
sg8
F0.002204800446174713
ssS'pt:[40.0,50.0]'
p871
(dp872
g7
F0.9967360496520996
sg8
F0.00019352777544120412
ssS'pt:[50.0,60.0]'
p873
(dp874
g7
F0.9927977919578552
sg8
F0.0006305245316480905
sssS'abseta:[1.2,2.1]'
p875
(dp876
S'pt:[100.0,200.0]'
p877
(dp878
g7
F1.0035746097564697
sg8
F0.007436337264116035
ssS'pt:[25.0,30.0]'
p879
(dp880
g7
F0.9990096092224121
sg8
F0.0009266221250899031
ssS'pt:[30.0,40.0]'
p881
(dp882
g7
F0.9991196393966675
sg8
F0.00032943032170485614
ssS'pt:[60.0,100.0]'
p883
(dp884
g7
F0.9941204190254211
sg8
F0.002450960426095423
ssS'pt:[20.0,25.0]'
p885
(dp886
g7
F1.0004689693450928
sg8
F0.0012799593905231616
ssS'pt:[40.0,50.0]'
p887
(dp888
g7
F0.9984928965568542
sg8
F0.00021108543912756446
ssS'pt:[50.0,60.0]'
p889
(dp890
g7
F0.9975550174713135
sg8
F0.0009462225785186047
sssS'abseta:[2.1,2.4]'
p891
(dp892
S'pt:[100.0,200.0]'
p893
(dp894
g7
F0.9524180889129639
sg8
F0.06868763774357031
ssS'pt:[25.0,30.0]'
p895
(dp896
g7
F0.9975222945213318
sg8
F0.001657076253713679
ssS'pt:[30.0,40.0]'
p897
(dp898
g7
F0.9951373934745789
sg8
F0.0006770573158253479
ssS'pt:[60.0,100.0]'
p899
(dp900
g7
F0.9828795194625854
sg8
F0.006668679648269225
ssS'pt:[20.0,25.0]'
p901
(dp902
g7
F1.0025666952133179
sg8
F0.0008364301059790114
ssS'pt:[40.0,50.0]'
p903
(dp904
g7
F0.994268536567688
sg8
F0.00018133694538615016
ssS'pt:[50.0,60.0]'
p905
(dp906
g7
F0.9986956119537354
sg8
F0.002594193786976947
sssS'abseta:[0.9,1.2]'
p907
(dp908
S'pt:[100.0,200.0]'
p909
(dp910
g7
F1.0
sg8
F0.006808103846250554
ssS'pt:[25.0,30.0]'
p911
(dp912
g7
F0.9921380877494812
sg8
F0.0015650159099853725
ssS'pt:[30.0,40.0]'
p913
(dp914
g7
F0.9961410164833069
sg8
F0.0004818529277801386
ssS'pt:[60.0,100.0]'
p915
(dp916
g7
F0.9919407963752747
sg8
F0.0028829998232956216
ssS'pt:[20.0,25.0]'
p917
(dp918
g7
F0.9954992532730103
sg8
F0.00331620403779163
ssS'pt:[40.0,50.0]'
p919
(dp920
g7
F0.9953615665435791
sg8
F0.0002955240185353429
ssS'pt:[50.0,60.0]'
p921
(dp922
g7
F0.9962810277938843
sg8
F0.001891480140170813
sssssS'MC_NUM_TightIDandIPCut_DEN_genTracks_PAR_pt_alleta_bin1'
p923
(dp924
S'pt_ratio'
p925
(dp926
S'pt:[100.0,200.0]'
p927
(dp928
g7
F1.0117074251174927
sg8
F0.01271393666606107
ssS'pt:[25.0,30.0]'
p929
(dp930
g7
F0.9807170033454895
sg8
F0.0007420611795233978
ssS'pt:[30.0,40.0]'
p931
(dp932
g7
F0.9802286028862
sg8
F0.00030177488814234335
ssS'pt:[60.0,100.0]'
p933
(dp934
g7
F0.9775142669677734
sg8
F0.0014242739674196368
ssS'pt:[20.0,25.0]'
p935
(dp936
g7
F0.9862016439437866
sg8
F0.0013711492344964408
ssS'pt:[40.0,50.0]'
p937
(dp938
g7
F0.9792596101760864
sg8
F0.00024149787573906007
ssS'pt:[50.0,60.0]'
p939
(dp940
g7
F0.9782692193984985
sg8
F0.0006253505909939447
ssss.